LX51 LINKER/LOCATER V4.41                                                               01/15/2025  09:25:09  PAGE 1


LX51 LINKER/LOCATER V4.41, INVOKED BY:
E:\KEIL\KEIL4\C51\BIN\LX51.EXE .\Debug\AddFunction.obj, .\Debug\Interrupt.obj, .\Debug\main.obj, .\Debug\FocControl.obj,
>>  .\Debug\FocControlFunction.obj, .\Debug\MotorProtect.obj, .\Debug\BEMFDetect.obj, .\Debug\PLLInitandStateSwitch.obj,
>>  ..\User\source\Function\PLLFunction.LIB, .\Debug\ADC.obj, .\Debug\AMP.obj, .\Debug\CMP.obj, .\Debug\Driver.obj, .\De
>> bug\GPIO.obj, .\Debug\PI.obj, .\Debug\Timer.obj, .\Debug\WDT.obj, .\Debug\UART.obj, .\Debug\STARTUP_FU6804.obj TO .\D
>> ebug\FOC_Fortior_FU6832 PRINT (.\Listings\FOC_Fortior_FU6832.map) REMOVEUNUSED CLASSES (XDATA (X:0X0-X:0X2A6), HDATA 
>> (X:0X0-X:0X2A6))


CPU MODE:     8051 MODE
MEMORY MODEL: LARGE WITH FLOATING POINT ARITHMETIC


INPUT MODULES INCLUDED:
  .\Debug\AddFunction.obj (ADDFUNCTION)
         COMMENT TYPE 0: C51 V9.00
  .\Debug\Interrupt.obj (INTERRUPT)
         COMMENT TYPE 0: C51 V9.00
  .\Debug\main.obj (MAIN)
         COMMENT TYPE 0: C51 V9.00
  .\Debug\FocControl.obj (FOCCONTROL)
         COMMENT TYPE 0: C51 V9.00
  .\Debug\FocControlFunction.obj (FOCCONTROLFUNCTION)
         COMMENT TYPE 0: C51 V9.00
  .\Debug\MotorProtect.obj (MOTORPROTECT)
         COMMENT TYPE 0: C51 V9.00
  .\Debug\BEMFDetect.obj (BEMFDETECT)
         COMMENT TYPE 0: C51 V9.00
  .\Debug\PLLInitandStateSwitch.obj (PLLINITANDSTATESWITCH)
         COMMENT TYPE 0: C51 V9.00
  ..\User\source\Function\PLLFunction.LIB (PLLFUNCTION)
         COMMENT TYPE 0: C51 V9.52.0.0
  .\Debug\ADC.obj (ADC)
         COMMENT TYPE 0: C51 V9.00
  .\Debug\AMP.obj (AMP)
         COMMENT TYPE 0: C51 V9.00
  .\Debug\CMP.obj (CMP)
         COMMENT TYPE 0: C51 V9.00
  .\Debug\Driver.obj (DRIVER)
         COMMENT TYPE 0: C51 V9.00
  .\Debug\GPIO.obj (GPIO)
         COMMENT TYPE 0: C51 V9.00
  .\Debug\PI.obj (PI)
         COMMENT TYPE 0: C51 V9.00
  .\Debug\Timer.obj (TIMER)
         COMMENT TYPE 0: C51 V9.00
  .\Debug\WDT.obj (WDT)
         COMMENT TYPE 0: C51 V9.00
  .\Debug\UART.obj (UART)
         COMMENT TYPE 0: C51 V9.00
  .\Debug\STARTUP_FU6804.obj (?C_STARTUP)
         COMMENT TYPE 1: A51 / ASM51 Assembler
  E:\KEIL\KEIL4\C51\LIB\C51FPL.LIB (?C?FPADD)
         COMMENT TYPE 1: A51 / ASM51 Assembler
  E:\KEIL\KEIL4\C51\LIB\C51FPL.LIB (?C?FPMUL)
         COMMENT TYPE 1: A51 / ASM51 Assembler
  E:\KEIL\KEIL4\C51\LIB\C51FPL.LIB (?C?FPDIV)
         COMMENT TYPE 1: A51 / ASM51 Assembler
  E:\KEIL\KEIL4\C51\LIB\C51FPL.LIB (?C?FPCMP)
         COMMENT TYPE 1: A51 / ASM51 Assembler
  E:\KEIL\KEIL4\C51\LIB\C51FPL.LIB (?C?FCAST)
         COMMENT TYPE 1: A51 / ASM51 Assembler
  E:\KEIL\KEIL4\C51\LIB\C51FPL.LIB (?C?CASTF)
         COMMENT TYPE 1: A51 / ASM51 Assembler
  E:\KEIL\KEIL4\C51\LIB\C51FPL.LIB (?C?FPGETOPN)
         COMMENT TYPE 1: A51 / ASM51 Assembler
LX51 LINKER/LOCATER V4.41                                                             01/15/2025  09:25:09  PAGE 2


  E:\KEIL\KEIL4\C51\LIB\C51L.LIB (?C_INIT)
         COMMENT TYPE 1: A51 / ASM51 Assembler
  E:\KEIL\KEIL4\C51\LIB\C51L.LIB (?C?COPY)
         COMMENT TYPE 1: A51 / ASM51 Assembler
  E:\KEIL\KEIL4\C51\LIB\C51L.LIB (?C?CLDOPTR)
         COMMENT TYPE 1: A51 / ASM51 Assembler
  E:\KEIL\KEIL4\C51\LIB\C51L.LIB (?C?IMUL)
         COMMENT TYPE 1: A51 / ASM51 Assembler
  E:\KEIL\KEIL4\C51\LIB\C51L.LIB (?C?IILDX)
         COMMENT TYPE 1: A51 / ASM51 Assembler
  E:\KEIL\KEIL4\C51\LIB\C51L.LIB (?C?ULDIV)
         COMMENT TYPE 1: A51 / ASM51 Assembler
  E:\KEIL\KEIL4\C51\LIB\C51L.LIB (?C?LNEG)
         COMMENT TYPE 1: A51 / ASM51 Assembler
  E:\KEIL\KEIL4\C51\LIB\C51L.LIB (?C?ULCMP)
         COMMENT TYPE 1: A51 / ASM51 Assembler
  E:\KEIL\KEIL4\C51\LIB\C51L.LIB (?C?ULSHR)
         COMMENT TYPE 1: A51 / ASM51 Assembler
  E:\KEIL\KEIL4\C51\LIB\C51L.LIB (?C?SLSHR)
         COMMENT TYPE 1: A51 / ASM51 Assembler
  E:\KEIL\KEIL4\C51\LIB\C51L.LIB (?C?LLDIDATA)
         COMMENT TYPE 1: A51 / ASM51 Assembler
  E:\KEIL\KEIL4\C51\LIB\C51L.LIB (?C?LSTIDATA)
         COMMENT TYPE 1: A51 / ASM51 Assembler
  E:\KEIL\KEIL4\C51\LIB\C51L.LIB (?C?LSTXDATA)
         COMMENT TYPE 1: A51 / ASM51 Assembler
  E:\KEIL\KEIL4\C51\LIB\C51L.LIB (?C?LSTKXDATA)
         COMMENT TYPE 1: A51 / ASM51 Assembler
  E:\KEIL\KEIL4\C51\LIB\C51L.LIB (?C?LIMUL)
         COMMENT TYPE 1: A51 / ASM51 Assembler
  E:\KEIL\KEIL4\C51\LIB\C51L.LIB (?C?MEMSET)
         COMMENT TYPE 1: A51 / ASM51 Assembler


ACTIVE MEMORY CLASSES OF MODULE:  .\Debug\FOC_Fortior_FU6832 (ADDFUNCTION)

BASE        START       END         USED      MEMORY CLASS
==========================================================
X:000000H   X:000000H   X:0002A6H   0001E8H   XDATA
X:000000H   X:000000H   X:0002A6H             HDATA
C:000000H   C:000000H   C:00FFFFH   002C9BH   CODE
I:000000H   I:000000H   I:0000FFH   00000AH   IDATA
I:000000H   I:000000H   I:00007FH   00005DH   DATA
C:000000H   C:000000H   C:00FFFFH   000007H   CONST


MEMORY MAP OF MODULE:  .\Debug\FOC_Fortior_FU6832 (ADDFUNCTION)


START     STOP      LENGTH    ALIGN  RELOC    MEMORY CLASS   SEGMENT NAME
=========================================================================

* * * * * * * * * * *   D A T A   M E M O R Y   * * * * * * * * * * * * *
000000H   000007H   000008H   ---    AT..     DATA           "REG BANK 0"
000008H   00005CH   000055H   BYTE   UNIT     DATA           ?DT?PLLFUNCTION
00005DH   000065H   000009H   BYTE   UNIT     IDATA          ?ID?ADDFUNCTION
000066H   000066H   000001H   BYTE   UNIT     IDATA          ?STACK

* * * * * * * * * * *   C O D E   M E M O R Y   * * * * * * * * * * * * *
000000H   000002H   000003H   ---    OFFS..   CODE           ?CO??C_STARTUP?0
000003H   000005H   000003H   BYTE   OFFS..   CODE           ?INTERRUPT?00003
000006H   000019H   000014H   BYTE   UNIT     CODE           ?PR?GPIO_INIT?GPIO
00001AH   00001AH   000001H   ---    ---      **GAP**
00001BH   00001DH   000003H   BYTE   OFFS..   CODE           ?INTERRUPT?0001B
00001EH   000022H   000005H   ---    ---      **GAP**
LX51 LINKER/LOCATER V4.41                                                             01/15/2025  09:25:09  PAGE 3


000023H   000025H   000003H   BYTE   OFFS..   CODE           ?INTERRUPT?00023
000026H   000037H   000012H   BYTE   UNIT     CODE           ?PR?FAULT_DETECTION?ADDFUNCTION
000038H   00003AH   000003H   ---    ---      **GAP**
00003BH   00003DH   000003H   BYTE   OFFS..   CODE           ?INTERRUPT?0003B
00003EH   00004AH   00000DH   BYTE   UNIT     CODE           ?PR?TIM2_INT?INTERRUPT
00004BH   00004DH   000003H   BYTE   OFFS..   CODE           ?INTERRUPT?0004B
00004EH   000052H   000005H   ---    ---      **GAP**
000053H   000055H   000003H   BYTE   OFFS..   CODE           ?INTERRUPT?00053
000056H   00005AH   000005H   ---    ---      **GAP**
00005BH   00005DH   000003H   BYTE   OFFS..   CODE           ?INTERRUPT?0005B
00005EH   000062H   000005H   ---    ---      **GAP**
000063H   000065H   000003H   BYTE   OFFS..   CODE           ?INTERRUPT?00063
000066H   000072H   00000DH   BYTE   UNIT     CODE           ?PR?SOFTWAREINIT?MAIN
000073H   000075H   000003H   BYTE   OFFS..   CODE           ?INTERRUPT?00073
000076H   00074CH   0006D7H   BYTE   UNIT     CODE           ?C?LIB_CODE
00074DH   000A66H   00031AH   BYTE   UNIT     CODE           ?PR?FAULT_PHASELOSS?MOTORPROTECT
000A67H   000D74H   00030EH   BYTE   UNIT     CODE           ?PR?_FUNCTION_1_MS_?ADDFUNCTION
000D75H   000F3FH   0001CBH   BYTE   UNIT     CODE           ?PR?FAULT_RECOVERY?MOTORPROTECT
000F40H   0010DEH   00019FH   BYTE   UNIT     CODE           ?PR?MC_CONTROL?FOCCONTROL
0010DFH   001268H   00018AH   BYTE   UNIT     CODE           ?PR?MAIN?MAIN
001269H   0013E1H   000179H   BYTE   UNIT     CODE           ?PR?FAULT_STALL?MOTORPROTECT
0013E2H   00152CH   00014BH   BYTE   UNIT     CODE           ?PR?SPEED_RESPONSE?ADDFUNCTION
00152DH   001670H   000144H   BYTE   UNIT     CODE           ?PR?FAULT_START?MOTORPROTECT
001671H   0017A1H   000131H   BYTE   UNIT     CODE           ?PR?FOC_INIT?FOCCONTROLFUNCTION
0017A2H   0018C0H   00011FH   BYTE   UNIT     CODE           ?PR?_CWCCWDETECT?BEMFDETECT
0018C1H   0019C3H   000103H   BYTE   UNIT     CODE           ?PR?BEMFSPEEDDETECT?BEMFDETECT
0019C4H   001AABH   0000E8H   BYTE   UNIT     CODE           ?PR?BEMFFOCCLOSELOOPSTART?BEMFDETECT
001AACH   001B89H   0000DEH   BYTE   UNIT     CODE           ?PR?BEMFDEALWITH?BEMFDETECT
001B8AH   001C5FH   0000D6H   BYTE   UNIT     CODE           ?PR?MOTOR_CHARGE?FOCCONTROLFUNCTION
001C60H   001D2CH   0000CDH   BYTE   UNIT     CODE           ?PR?UART2_RECIVEDATA?UART
001D2DH   001DF8H   0000CCH   BYTE   UNIT     CODE           ?PR?MOTORCONTROLINIT?FOCCONTROLFUNCTION
001DF9H   001EBEH   0000C6H   BYTE   UNIT     CODE           ?PR?GETCURRENTOFFSET?FOCCONTROLFUNCTION
001EBFH   001F82H   0000C4H   BYTE   UNIT     CODE           ?PR?TIM4_INT?INTERRUPT
001F83H   002041H   0000BFH   BYTE   UNIT     CODE           ?PR?MOTOR_OPEN?FOCCONTROLFUNCTION
002042H   0020FBH   0000BAH   BYTE   UNIT     CODE           ?PR?STARRAMPDEALWITH?ADDFUNCTION
0020FCH   0021ACH   0000B1H   BYTE   UNIT     CODE           ?PR?UART2_INT?INTERRUPT
0021ADH   002256H   0000AAH   BYTE   UNIT     CODE           ?PR?FAULT_OVERUNDERVOLTAGE?MOTORPROTECT
002257H   0022FAH   0000A4H   BYTE   UNIT     CODE           ?PR?FAULT_OVERCURRENT?MOTORPROTECT
0022FBH   002399H   00009FH   BYTE   UNIT     CODE           ?PR?MC_RAMP?ADDFUNCTION
00239AH   002433H   00009AH   BYTE   UNIT     CODE           ?C_C51STARTUP
002434H   0024AFH   00007CH   BYTE   UNIT     CODE           ?PR?TIM3_INT?INTERRUPT
0024B0H   00252AH   00007BH   BYTE   UNIT     CODE           ?PR?MOTOR_ALIGN?FOCCONTROLFUNCTION
00252BH   0025A5H   00007BH   BYTE   UNIT     CODE           ?PR?UART2_INIT?UART
0025A6H   00261DH   000078H   BYTE   UNIT     CODE           ?PR?_USART2_SENDVALUE?UART
00261EH   002680H   000063H   BYTE   UNIT     CODE           ?PR?_SEND_CRC8?UART
002681H   0026E3H   000063H   BYTE   UNIT     CODE           ?PR?_CHECK_CRC8?UART
0026E4H   002742H   00005FH   BYTE   UNIT     CODE           ?PR?MOTOR_RETURN?UART
002743H   00279EH   00005CH   BYTE   UNIT     CODE           ?PR?DRIVER_INIT?DRIVER
00279FH   0027F8H   00005AH   BYTE   UNIT     CODE           ?PR?BEMFDETECTFUNC?BEMFDETECT
0027F9H   00284DH   000055H   BYTE   UNIT     CODE           ?PR?BEMFSPEEDCAL?BEMFDETECT
00284EH   0028A0H   000053H   BYTE   UNIT     CODE           ?PR?CMP_ISR?INTERRUPT
0028A1H   0028F2H   000052H   BYTE   UNIT     CODE           ?PR?VARIABLESPREINIT?FOCCONTROLFUNCTION
0028F3H   002941H   00004FH   BYTE   UNIT     CODE           ?PR?CMP_BEMF_INIT?BEMFDETECT
002942H   00298BH   00004AH   BYTE   UNIT     CODE           ?PR?PI3_INIT?PI
00298CH   0029CEH   000043H   BYTE   UNIT     CODE           ?PR?ADC_INIT?ADC
0029CFH   002A0FH   000041H   BYTE   UNIT     CODE           ?PR?TIMER4_INIT?TIMER
002A10H   002A47H   000038H   BYTE   UNIT     CODE           ?PR?BEMFDETECTINIT?BEMFDETECT
002A48H   002A7EH   000037H   BYTE   UNIT     CODE           ?PR?CMP3_INIT?CMP
002A7FH   002AAFH   000031H   BYTE   UNIT     CODE           ?PR?TIME2_BEMF_INIT?BEMFDETECT
002AB0H   002ADEH   00002FH   BYTE   UNIT     CODE           ?PR?_WATCHDOGCONFIG?WDT
002ADFH   002B0BH   00002DH   BYTE   UNIT     CODE           ?C_INITSEG
002B0CH   002B36H   00002BH   BYTE   UNIT     CODE           ?PR?FAULT_GETCURRENTOFFSET?ADDFUNCTION
002B37H   002B61H   00002BH   BYTE   UNIT     CODE           ?PR?MOTOR_READY?FOCCONTROLFUNCTION
002B62H   002B88H   000027H   BYTE   UNIT     CODE           ?PR?HARDWAREINIT?MAIN
002B89H   002BADH   000025H   BYTE   UNIT     CODE           ?PR?DRV_ISR?INTERRUPT
LX51 LINKER/LOCATER V4.41                                                             01/15/2025  09:25:09  PAGE 4


002BAEH   002BD0H   000023H   BYTE   UNIT     CODE           ?PR?SYSTICK_INT?INTERRUPT
002BD1H   002BF3H   000023H   BYTE   UNIT     CODE           ?PR?AMP_INIT?AMP
002BF4H   002C15H   000022H   BYTE   UNIT     CODE           ?PR?MOTOR_TAILWIND?FOCCONTROLFUNCTION
002C16H   002C30H   00001BH   BYTE   UNIT     CODE           ?PR?CMP3_INT?INTERRUPT
002C31H   002C4AH   00001AH   BYTE   UNIT     CODE           ?PR?LVW_TSD_INT?INTERRUPT
002C4BH   002C63H   000019H   BYTE   UNIT     CODE           ?PR?_HW_ONE_PI3?ADDFUNCTION
002C64H   002C7CH   000019H   BYTE   UNIT     CODE           ?PR?MOTOR_INIT?FOCCONTROLFUNCTION
002C7DH   002C8CH   000010H   BYTE   UNIT     CODE           ?PR?VREFCONFIGINIT?MAIN
002C8DH   002C9AH   00000EH   BYTE   UNIT     CODE           ?PR?FAULTPROCESS?ADDFUNCTION
002C9BH   002CA8H   00000EH   BYTE   UNIT     CODE           ?PR?CMP3_INTERRUPT_INIT?CMP
002CA9H   002CB2H   00000AH   BYTE   UNIT     CODE           ?PR?GPIO_DEFAULTINIT?GPIO
002CB3H   002CB9H   000007H   BYTE   UNIT     CONST          ?CO?UART

* * * * * * * * * * *  X D A T A   M E M O R Y  * * * * * * * * * * * * *
000000H   00014FH   000150H   BYTE   UNIT     XDATA          ?XD?ADDFUNCTION
000150H   000190H   000041H   BYTE   UNIT     XDATA          ?XD?MOTORPROTECT
000191H   0001BBH   00002BH   BYTE   UNIT     XDATA          ?XD?BEMFDETECT
0001BCH   0001D8H   00001DH   BYTE   UNIT     XDATA          _XDATA_GROUP_
0001D9H   0001E3H   00000BH   BYTE   UNIT     XDATA          ?XD?INTERRUPT
0001E4H   0001E6H   000003H   BYTE   UNIT     XDATA          ?XD?UART
0001E7H   0001E7H   000001H   BYTE   UNIT     XDATA          ?XD?FOCCONTROLFUNCTION

* * * * * * * * *   R E M O V E D     S E G M E N T S   * * * * * * * *
   *DEL*:           000077H   BYTE   UNIT     CODE           ?PR?ONOFF_STARTTEST?ADDFUNCTION
   *DEL*:           000019H   BYTE   UNIT     CODE           ?PR?_HW_ONE_PI2?ADDFUNCTION
   *DEL*:           00013BH   BYTE   UNIT     CODE           ?PR?VSPSAMPLE?ADDFUNCTION
   *DEL*:           000138H   BYTE   UNIT     CODE           ?PR?PWMINPUTCAPTURE?ADDFUNCTION
   *DEL*:           00004AH   BYTE   UNIT     CODE           ?PR?PLLFUNCTIONINIT?PLLINITANDSTATESWITCH
   *DEL*:           0000F0H   BYTE   UNIT     CODE           ?PR?PLLSTATEFUNCTION?PLLINITANDSTATESWITCH
   *DEL*:           000032H   BYTE   UNIT     CODE           ?PR?RAMPFUCNTION?PLLINITANDSTATESWITCH
   *DEL*:           0003CAH   BYTE   UNIT     CODE           ?PR?PLLSOFTWAREFUNCTION?PLLFUNCTION
   *DEL*:           00006DH   BYTE   UNIT     CODE           ?PR?CMP0_INIT?CMP
   *DEL*:           00009BH   BYTE   UNIT     CODE           ?PR?PI_INIT_PLL?PI
   *DEL*:           000031H   BYTE   UNIT     CODE           ?PR?TIMER2_INIT?TIMER
   *DEL*:           000043H   BYTE   UNIT     CODE           ?PR?TIMER3_INIT?TIMER



OVERLAY MAP OF MODULE:   .\Debug\FOC_Fortior_FU6832 (ADDFUNCTION)


FUNCTION/MODULE                             XDATA_GROUP
--> CALLED FUNCTION/MODULE                  START  STOP
=======================================================
LVW_TSD_INT/INTERRUPT                       ----- -----

*** NEW ROOT ******************************

DRV_ISR/INTERRUPT                           ----- -----

*** NEW ROOT ******************************

TIM2_INT/INTERRUPT                          ----- -----

*** NEW ROOT ******************************

CMP_ISR/INTERRUPT                           ----- -----
  +--> ?PR?BEMFDETECTFUNC?BEMFDETECT

BEMFDETECTFUNC/BEMFDETECT                   ----- -----
  +--> ?PR?_CWCCWDETECT?BEMFDETECT
  +--> ?PR?BEMFSPEEDDETECT?BEMFDETECT
  +--> ?PR?BEMFSPEEDCAL?BEMFDETECT
  +--> ?PR?BEMFFOCCLOSELOOPSTART?BEMFDETECT

LX51 LINKER/LOCATER V4.41                                                             01/15/2025  09:25:09  PAGE 5


_CWCCWDETECT/BEMFDETECT                     ----- -----

BEMFSPEEDDETECT/BEMFDETECT                  ----- -----

BEMFSPEEDCAL/BEMFDETECT                     ----- -----

BEMFFOCCLOSELOOPSTART/BEMFDETECT            ----- -----
  +--> ?PR?FOC_INIT?FOCCONTROLFUNCTION

FOC_INIT/FOCCONTROLFUNCTION                 ----- -----

*** NEW ROOT ******************************

TIM3_INT/INTERRUPT                          ----- -----

*** NEW ROOT ******************************

SYSTICK_INT/INTERRUPT                       ----- -----

*** NEW ROOT ******************************

CMP3_INT/INTERRUPT                          ----- -----

*** NEW ROOT ******************************

TIM4_INT/INTERRUPT                          ----- -----

*** NEW ROOT ******************************

UART2_INT/INTERRUPT                         ----- -----
  +--> ?PR?UART2_RECIVEDATA?UART

UART2_RECIVEDATA/UART                       01BCH 01C3H
  +--> ?CO?UART
  +--> ?PR?_CHECK_CRC8?UART

?CO?UART                                    ----- -----

_CHECK_CRC8/UART                            01C4H 01C8H

*** NEW ROOT ******************************

?C_C51STARTUP                               ----- -----
  +--> ?PR?MAIN?MAIN
  +--> ?C_INITSEG

MAIN/MAIN                                   01C9H 01CCH
  +--> ?PR?VREFCONFIGINIT?MAIN
  +--> ?PR?HARDWAREINIT?MAIN
  +--> ?PR?SOFTWAREINIT?MAIN
  +--> ?PR?MOTOR_RETURN?UART
  +--> ?PR?_WATCHDOGCONFIG?WDT
  +--> ?PR?GETCURRENTOFFSET?FOCCONTROLFUNCTION
  +--> ?PR?MC_CONTROL?FOCCONTROL
  +--> ?PR?_FUNCTION_1_MS_?ADDFUNCTION

VREFCONFIGINIT/MAIN                         ----- -----

HARDWAREINIT/MAIN                           ----- -----
  +--> ?PR?GPIO_DEFAULTINIT?GPIO
  +--> ?PR?CMP3_INIT?CMP
  +--> ?PR?GPIO_INIT?GPIO
  +--> ?PR?ADC_INIT?ADC
  +--> ?PR?DRIVER_INIT?DRIVER
  +--> ?PR?AMP_INIT?AMP
LX51 LINKER/LOCATER V4.41                                                             01/15/2025  09:25:09  PAGE 6


  +--> ?PR?CMP3_INTERRUPT_INIT?CMP
  +--> ?PR?UART2_INIT?UART
  +--> ?PR?TIMER4_INIT?TIMER

GPIO_DEFAULTINIT/GPIO                       ----- -----

CMP3_INIT/CMP                               ----- -----

GPIO_INIT/GPIO                              ----- -----

ADC_INIT/ADC                                ----- -----

DRIVER_INIT/DRIVER                          ----- -----

AMP_INIT/AMP                                ----- -----

CMP3_INTERRUPT_INIT/CMP                     ----- -----

UART2_INIT/UART                             ----- -----

TIMER4_INIT/TIMER                           ----- -----

SOFTWAREINIT/MAIN                           ----- -----
  +--> ?PR?MOTORCONTROLINIT?FOCCONTROLFUNCTION

MOTORCONTROLINIT/FOCCONTROLFUNCTION         ----- -----

MOTOR_RETURN/UART                           ----- -----
  +--> ?PR?_USART2_SENDVALUE?UART

_USART2_SENDVALUE/UART                      01CDH 01D3H
  +--> ?PR?_SEND_CRC8?UART

_SEND_CRC8/UART                             01D4H 01D8H

_WATCHDOGCONFIG/WDT                         ----- -----

GETCURRENTOFFSET/FOCCONTROLFUNCTION         ----- -----
  +--> ?PR?FAULT_GETCURRENTOFFSET?ADDFUNCTION

FAULT_GETCURRENTOFFSET/ADDFUNCTION          ----- -----

MC_CONTROL/FOCCONTROL                       ----- -----
  +--> ?PR?MOTOR_READY?FOCCONTROLFUNCTION
  +--> ?PR?MOTOR_INIT?FOCCONTROLFUNCTION
  +--> ?PR?MOTOR_CHARGE?FOCCONTROLFUNCTION
  +--> ?PR?MOTOR_TAILWIND?FOCCONTROLFUNCTION
  +--> ?PR?MOTOR_ALIGN?FOCCONTROLFUNCTION
  +--> ?PR?MOTOR_OPEN?FOCCONTROLFUNCTION
  +--> ?PR?FAULTPROCESS?ADDFUNCTION

MOTOR_READY/FOCCONTROLFUNCTION              ----- -----

MOTOR_INIT/FOCCONTROLFUNCTION               ----- -----
  +--> ?PR?VARIABLESPREINIT?FOCCONTROLFUNCTION

VARIABLESPREINIT/FOCCONTROLFUNCTION         ----- -----

MOTOR_CHARGE/FOCCONTROLFUNCTION             ----- -----

MOTOR_TAILWIND/FOCCONTROLFUNCTION           ----- -----
  +--> ?PR?BEMFDETECTINIT?BEMFDETECT
  +--> ?PR?BEMFDEALWITH?BEMFDETECT

BEMFDETECTINIT/BEMFDETECT                   ----- -----
LX51 LINKER/LOCATER V4.41                                                             01/15/2025  09:25:09  PAGE 7


  +--> ?PR?TIME2_BEMF_INIT?BEMFDETECT
  +--> ?PR?CMP_BEMF_INIT?BEMFDETECT

TIME2_BEMF_INIT/BEMFDETECT                  ----- -----

CMP_BEMF_INIT/BEMFDETECT                    ----- -----

BEMFDEALWITH/BEMFDETECT                     ----- -----

MOTOR_ALIGN/FOCCONTROLFUNCTION              ----- -----
  +--> ?PR?FOC_INIT?FOCCONTROLFUNCTION

MOTOR_OPEN/FOCCONTROLFUNCTION               ----- -----
  +--> ?PR?FOC_INIT?FOCCONTROLFUNCTION

FAULTPROCESS/ADDFUNCTION                    ----- -----

_FUNCTION_1_MS_/ADDFUNCTION                 01CDH 01D0H
  +--> ?PR?SPEED_RESPONSE?ADDFUNCTION
  +--> ?PR?FAULT_DETECTION?ADDFUNCTION
  +--> ?PR?STARRAMPDEALWITH?ADDFUNCTION

SPEED_RESPONSE/ADDFUNCTION                  ----- -----
  +--> ?PR?PI3_INIT?PI
  +--> ?PR?MC_RAMP?ADDFUNCTION
  +--> ?PR?_HW_ONE_PI3?ADDFUNCTION

PI3_INIT/PI                                 ----- -----

MC_RAMP/ADDFUNCTION                         ----- -----

_HW_ONE_PI3/ADDFUNCTION                     ----- -----

FAULT_DETECTION/ADDFUNCTION                 ----- -----
  +--> ?PR?FAULT_OVERCURRENT?MOTORPROTECT
  +--> ?PR?FAULT_OVERUNDERVOLTAGE?MOTORPROTECT
  +--> ?PR?FAULT_START?MOTORPROTECT
  +--> ?PR?FAULT_STALL?MOTORPROTECT
  +--> ?PR?FAULT_PHASELOSS?MOTORPROTECT
  +--> ?PR?FAULT_RECOVERY?MOTORPROTECT

FAULT_OVERCURRENT/MOTORPROTECT              ----- -----

FAULT_OVERUNDERVOLTAGE/MOTORPROTECT         ----- -----

FAULT_START/MOTORPROTECT                    ----- -----

FAULT_STALL/MOTORPROTECT                    ----- -----
  +--> ?PR?FAULTPROCESS?ADDFUNCTION

FAULT_PHASELOSS/MOTORPROTECT                ----- -----

FAULT_RECOVERY/MOTORPROTECT                 ----- -----

STARRAMPDEALWITH/ADDFUNCTION                ----- -----

?C_INITSEG                                  ----- -----



PUBLIC SYMBOLS OF MODULE:  .\Debug\FOC_Fortior_FU6832 (ADDFUNCTION)


      VALUE       CLASS    TYPE      PUBLIC SYMBOL NAME
      =================================================
LX51 LINKER/LOCATER V4.41                                                             01/15/2025  09:25:09  PAGE 8


      010003BFH   CODE     ---       ?C?CASTF
      01000536H   CODE     ---       ?C?CLDOPTR
      00000000H   NUMBER   ---       ?C?CODESEG
      01000510H   CODE     ---       ?C?COPY
      0100038BH   CODE     ---       ?C?FCASTC
      01000386H   CODE     ---       ?C?FCASTI
      01000381H   CODE     ---       ?C?FCASTL
      0100007DH   CODE     ---       ?C?FPADD
      01000316H   CODE     ---       ?C?FPCMP
      01000314H   CODE     ---       ?C?FPCMP3
      01000277H   CODE     ---       ?C?FPDIV
      010003F6H   CODE     ---       ?C?FPGETOPN2
      0100016EH   CODE     ---       ?C?FPMUL
      0100042BH   CODE     ---       ?C?FPNANRESULT
      01000435H   CODE     ---       ?C?FPOVERFLOW
      0100040DH   CODE     ---       ?C?FPRESULT
      01000421H   CODE     ---       ?C?FPRESULT2
      01000079H   CODE     ---       ?C?FPSUB
      01000432H   CODE     ---       ?C?FPUNDERFLOW
      01000575H   CODE     ---       ?C?IILDX
      01000563H   CODE     ---       ?C?IMUL
      010006F4H   CODE     ---       ?C?LIMUL
      0100069FH   CODE     ---       ?C?LLDIDATA
      01000659H   CODE     ---       ?C?LNEG
      010006ABH   CODE     ---       ?C?LSTIDATA
      010006C3H   CODE     ---       ?C?LSTKXDATA
      010006B7H   CODE     ---       ?C?LSTXDATA
      01000721H   CODE     ---       ?C?MEMSET
      0100068BH   CODE     ---       ?C?SLSHR
      01000667H   CODE     ---       ?C?ULCMP
      010005C7H   CODE     ---       ?C?ULDIV
      01000678H   CODE     ---       ?C?ULSHR
      00000000H   NUMBER   ---       ?C?XDATASEG
      010023EFH   CODE     ---       ?C_START
      01000000H   CODE     ---       ?C_STARTUP
      01002681H   CODE     ---       _Check_CRC8
      010017A2H   CODE     ---       _CWCCWDetect
      01000A67H   CODE     ---       _Function_1_MS_
*DEL*:00000000H   CODE     ---       _HW_one_PI2
      01002C4BH   CODE     ---       _HW_One_PI3
      0100261EH   CODE     ---       _Send_CRC8
      010025A6H   CODE     ---       _Usart2_SendValue
      01002AB0H   CODE     ---       _WatchDogConfig
*SFR* 000000D0H.6 DATA     BIT       AC
*SFR* 000000E0H   DATA     BYTE      ACC
      0100298CH   CODE     ---       ADC_Init
      0200014AH   XDATA    ---       AdcSampleValue
      01002BD1H   CODE     ---       AMP_Init
      01001AACH   CODE     ---       BEMFDealwith
      02000193H   XDATA    ---       BEMFDetect
      0100279FH   CODE     ---       BEMFDetectFunc
      01002A10H   CODE     ---       BEMFDetectInit
      010019C4H   CODE     ---       BEMFFOCCloseLoopStart
      010027F9H   CODE     ---       BEMFSpeedCal
      010018C1H   CODE     ---       BEMFSpeedDetect
      0200012CH   XDATA    ---       blower_state_t
*DEL*:00000000H   CODE     ---       CMP0_Init
      01002A48H   CODE     ---       CMP3_Init
      01002C16H   CODE     ---       CMP3_INT
      01002C9BH   CODE     ---       CMP3_Interrupt_Init
      010028F3H   CODE     ---       CMP_BEMF_Init
*SFR* 000000D5H   DATA     BYTE      CMP_CR0
*SFR* 000000D6H   DATA     BYTE      CMP_CR1
*SFR* 000000DAH   DATA     BYTE      CMP_CR2
*SFR* 000000DCH   DATA     BYTE      CMP_CR3
LX51 LINKER/LOCATER V4.41                                                             01/15/2025  09:25:09  PAGE 9


*SFR* 000000E1H   DATA     BYTE      CMP_CR4
      0100284EH   CODE     ---       CMP_ISR
*SFR* 000000D7H   DATA     BYTE      CMP_SR
*SFR* 000000D0H.7 DATA     BIT       CY
*SFR* 00000082H   DATA     WORD      DPTR
      01002743H   CODE     ---       Driver_Init
      01002B89H   CODE     ---       DRV_ISR
*SFR* 000000F8H   DATA     BYTE      DRV_OUT
*SFR* 000000A8H.7 DATA     BIT       EA
*SFR* 000000A8H.4 DATA     BIT       ES0
*SFR* 000000D9H   DATA     BYTE      EVT_FILT
*SFR* 000000A8H   DATA     BIT       EX0
*SFR* 000000A8H.2 DATA     BIT       EX1
*SFR* 000000D0H.5 DATA     BIT       F0
*SFR* 000000D0H.1 DATA     BIT       F1
      01000026H   CODE     ---       Fault_Detection
      01002B0CH   CODE     ---       Fault_GetCurrentOffset
      01002257H   CODE     ---       Fault_Overcurrent
      010021ADH   CODE     ---       Fault_OverUnderVoltage
      0100074DH   CODE     ---       Fault_phaseloss
      01000D75H   CODE     ---       Fault_Recovery
      01001269H   CODE     ---       Fault_Stall
      0100152DH   CODE     ---       Fault_Start
      01002C8DH   CODE     ---       FaultProcess
      02000023H   XDATA    ---       FG
*SFR* 00000085H   DATA     BYTE      FLA_CR
*SFR* 00000084H   DATA     BYTE      FLA_KEY
      01001671H   CODE     ---       FOC_Init
      020001E3H   XDATA    BYTE      g_1mTick
      01001DF9H   CODE     ---       GetCurrentOffset
*SFR* 00000080H   DATA     BIT       GP00
*SFR* 00000080H.1 DATA     BIT       GP01
*SFR* 00000080H.2 DATA     BIT       GP02
*SFR* 00000080H.3 DATA     BIT       GP03
*SFR* 00000080H.4 DATA     BIT       GP04
*SFR* 00000080H.5 DATA     BIT       GP05
*SFR* 00000080H.6 DATA     BIT       GP06
*SFR* 00000080H.7 DATA     BIT       GP07
*SFR* 00000090H   DATA     BIT       GP10
*SFR* 00000090H.1 DATA     BIT       GP11
*SFR* 00000090H.2 DATA     BIT       GP12
*SFR* 00000090H.3 DATA     BIT       GP13
*SFR* 00000090H.4 DATA     BIT       GP14
*SFR* 00000090H.5 DATA     BIT       GP15
*SFR* 00000090H.6 DATA     BIT       GP16
*SFR* 00000090H.7 DATA     BIT       GP17
*SFR* 000000A0H   DATA     BIT       GP20
*SFR* 000000A0H.1 DATA     BIT       GP21
*SFR* 000000A0H.2 DATA     BIT       GP22
*SFR* 000000A0H.3 DATA     BIT       GP23
*SFR* 000000A0H.4 DATA     BIT       GP24
*SFR* 000000A0H.5 DATA     BIT       GP25
*SFR* 000000A0H.6 DATA     BIT       GP26
*SFR* 000000A0H.7 DATA     BIT       GP27
*SFR* 000000B0H   DATA     BIT       GP30
*SFR* 000000B0H.1 DATA     BIT       GP31
*SFR* 000000B0H.2 DATA     BIT       GP32
*SFR* 000000B0H.3 DATA     BIT       GP33
*SFR* 000000B0H.4 DATA     BIT       GP34
*SFR* 000000B0H.5 DATA     BIT       GP35
*SFR* 000000B0H.6 DATA     BIT       GP36
*SFR* 000000B0H.7 DATA     BIT       GP37
*SFR* 000000E8H.2 DATA     BIT       GP42
*SFR* 000000E8H.3 DATA     BIT       GP43
*SFR* 000000E8H.4 DATA     BIT       GP44
LX51 LINKER/LOCATER V4.41                                                             01/15/2025  09:25:09  PAGE 10


*SFR* 000000E8H.5 DATA     BIT       GP45
      01002CA9H   CODE     ---       GPIO_DefaultInit
      01000006H   CODE     ---       GPIO_Init
      01002B62H   CODE     ---       HardwareInit
*SFR* 000000A8H   DATA     BYTE      IE
*SFR* 00000088H.2 DATA     BIT       IF0
*SFR* 000000B8H   DATA     BYTE      IP0
*SFR* 000000C0H   DATA     BYTE      IP1
*SFR* 000000C8H   DATA     BYTE      IP2
*SFR* 000000D8H   DATA     BYTE      IP3
*SFR* 00000088H   DATA     BIT       IT00
*SFR* 00000088H.1 DATA     BIT       IT01
*SFR* 00000088H.3 DATA     BIT       IT10
*SFR* 00000088H.4 DATA     BIT       IT11
*SFR* 000000DBH   DATA     BYTE      LVSR
      01002C31H   CODE     ---       LVW_TSD_INT
      010010DFH   CODE     ---       main
      01000F40H   CODE     ---       MC_Control
      010022FBH   CODE     ---       mc_ramp
      02000133H   XDATA    ---       mcCurOffset
      02000150H   XDATA    ---       mcCurVarible
      02000161H   XDATA    ---       mcFaultDect
      02000119H   XDATA    BYTE      mcFaultSource
      02000000H   XDATA    ---       mcFocCtrl
      02000148H   XDATA    ---       mcFRState
      02000157H   XDATA    ---       mcProtectTime
      0200003FH   XDATA    ---       mcPwmInput
      0200011BH   XDATA    ---       mcSpeedRamp
      02000022H   XDATA    ---       McStaSet
      0200011AH   XDATA    BYTE      mcState
*SFR* 000000C6H   DATA     WORD      MDU_A
*SFR* 000000C4H   DATA     WORD      MDU_B
*SFR* 000000C2H   DATA     WORD      MDU_C
*SFR* 000000C1H   DATA     BYTE      MDU_CR
*SFR* 000000CBH   DATA     BYTE      MDU_D
*SFR* 000000CAH   DATA     BYTE      MDU_MD
*SFR* 000000F8H.7 DATA     BIT       MOE
      010024B0H   CODE     ---       Motor_Align
      01001B8AH   CODE     ---       Motor_Charge
      01002C64H   CODE     ---       Motor_Init
      01001F83H   CODE     ---       Motor_Open
      01002B37H   CODE     ---       Motor_Ready
      010026E4H   CODE     ---       Motor_Return
      01002BF4H   CODE     ---       Motor_TailWind
      01001D2DH   CODE     ---       MotorcontrolInit
*SFR* 000000F8H   DATA     BIT       OISUH
*SFR* 000000F8H.1 DATA     BIT       OISUL
*SFR* 000000F8H.2 DATA     BIT       OISVH
*SFR* 000000F8H.3 DATA     BIT       OISVL
*SFR* 000000F8H.4 DATA     BIT       OISWH
*SFR* 000000F8H.5 DATA     BIT       OISWL
*DEL*:00000000H   CODE     ---       ONOFF_Starttest
      0000005DH   IDATA    ---       ONOFFTest
*SFR* 000000D0H.2 DATA     BIT       OV
*SFR* 000000D0H   DATA     BIT       P
*SFR* 00000080H   DATA     BYTE      P0
*SFR* 000000FCH   DATA     BYTE      P0_OE
*SFR* 00000090H   DATA     BYTE      P1
*SFR* 000000D1H   DATA     BYTE      P1_IE
*SFR* 000000D2H   DATA     BYTE      P1_IF
*SFR* 000000FDH   DATA     BYTE      P1_OE
*SFR* 000000A0H   DATA     BYTE      P2
*SFR* 000000D3H   DATA     BYTE      P2_IE
*SFR* 000000D4H   DATA     BYTE      P2_IF
*SFR* 000000FEH   DATA     BYTE      P2_OE
LX51 LINKER/LOCATER V4.41                                                             01/15/2025  09:25:09  PAGE 11


*SFR* 000000B0H   DATA     BYTE      P3
*SFR* 000000FFH   DATA     BYTE      P3_OE
*SFR* 000000E8H   DATA     BYTE      P4
*SFR* 000000E9H   DATA     BYTE      P4_OE
*SFR* 000000C0H.4 DATA     BIT       PADC0
*SFR* 000000C0H.5 DATA     BIT       PADC1
*SFR* 000000C0H.6 DATA     BIT       PCMP0
*SFR* 000000C0H.7 DATA     BIT       PCMP1
*SFR* 000000D8H   DATA     BIT       PCMP30
*SFR* 000000D8H.1 DATA     BIT       PCMP31
*SFR* 00000087H   DATA     BYTE      PCON
*SFR* 000000D8H.6 DATA     BIT       PDMA0
*SFR* 000000D8H.7 DATA     BIT       PDMA1
*SFR* 000000B8H.6 DATA     BIT       PDRV0
*SFR* 000000B8H.7 DATA     BIT       PDRV1
*SFR* 000000D8H.2 DATA     BIT       PI2C_UT10
*SFR* 000000D8H.3 DATA     BIT       PI2C_UT11
      01002942H   CODE     ---       PI3_Init
*SFR* 000000F9H   DATA     BYTE      PI_CR
*DEL*:00000000H   CODE     ---       PI_Init_PLL
      00000008H   DATA     ---       PLLfunction
*DEL*:00000000H   CODE     ---       PLLFunctionInit
*DEL*:00000000H   CODE     ---       PLLSoftwareFunction
*DEL*:00000000H   CODE     ---       PLLStateFunction
*SFR* 000000B8H   DATA     BIT       PLVW0
*SFR* 000000B8H.1 DATA     BIT       PLVW1
*SFR* 000000C8H   DATA     BIT       PRTC0
*SFR* 000000C8H.1 DATA     BIT       PRTC1
*SFR* 000000D8H.4 DATA     BIT       PSPI_UT20
*SFR* 000000D8H.5 DATA     BIT       PSPI_UT21
*SFR* 000000D0H   DATA     BYTE      PSW
*SFR* 000000C0H.2 DATA     BIT       PTIM10
*SFR* 000000C0H.3 DATA     BIT       PTIM11
*SFR* 000000C0H   DATA     BIT       PTIM20
*SFR* 000000C0H.1 DATA     BIT       PTIM21
*SFR* 000000C8H.2 DATA     BIT       PTIM30
*SFR* 000000C8H.3 DATA     BIT       PTIM31
*SFR* 000000C8H.4 DATA     BIT       PTIM4S0
*SFR* 000000C8H.5 DATA     BIT       PTIM4S1
*SFR* 000000C8H.6 DATA     BIT       PTSD0
*SFR* 000000C8H.7 DATA     BIT       PTSD1
*DEL*:00000000H   CODE     ---       PWMInputCapture
*SFR* 000000B8H.2 DATA     BIT       PX00
*SFR* 000000B8H.3 DATA     BIT       PX01
*SFR* 000000B8H.4 DATA     BIT       PX10
*SFR* 000000B8H.5 DATA     BIT       PX11
*DEL*:00000000H   CODE     ---       RampFucntion
*SFR* 00000098H.2 DATA     BIT       RB8
*SFR* 00000098H.4 DATA     BIT       REN
*SFR* 00000098H   DATA     BIT       RI
*SFR* 000000D0H.3 DATA     BIT       RS0
*SFR* 000000D0H.4 DATA     BIT       RS1
*SFR* 000000C9H   DATA     BYTE      RST_SR
*SFR* 000000A8H.6 DATA     BIT       RTCIE
*SFR* 00000098H.5 DATA     BIT       SM2
      01000066H   CODE     ---       SoftwareInit
      010013E2H   CODE     ---       Speed_response
      020001DBH   XDATA    ---       spidebug
*SFR* 000000A8H.3 DATA     BIT       SPIIE
      01002042H   CODE     ---       StarRampDealwith
      020001E7H   XDATA    CHAR      Step_count
      01002BAEH   CODE     ---       SYStick_INT
*SFR* 00000098H.3 DATA     BIT       TB8
*SFR* 00000088H   DATA     BYTE      TCON
*SFR* 00000098H.1 DATA     BIT       TI
LX51 LINKER/LOCATER V4.41                                                             01/15/2025  09:25:09  PAGE 12


*SFR* 000000AEH   DATA     WORD      TIM2__ARR
*SFR* 000000AAH   DATA     WORD      TIM2__CNTR
*SFR* 000000ACH   DATA     WORD      TIM2__DR
*SFR* 000000A1H   DATA     BYTE      TIM2_CR0
*SFR* 000000A9H   DATA     BYTE      TIM2_CR1
      0100003EH   CODE     ---       TIM2_INT
*SFR* 000000A6H   DATA     WORD      TIM3__ARR
*SFR* 000000A2H   DATA     WORD      TIM3__CNTR
*SFR* 000000A4H   DATA     WORD      TIM3__DR
*SFR* 0000009CH   DATA     BYTE      TIM3_CR0
*SFR* 0000009DH   DATA     BYTE      TIM3_CR1
      01002434H   CODE     ---       TIM3_INT
*SFR* 00000096H   DATA     WORD      TIM4__ARR
*SFR* 00000092H   DATA     WORD      TIM4__CNTR
*SFR* 00000094H   DATA     WORD      TIM4__DR
*SFR* 0000009EH   DATA     BYTE      TIM4_CR0
*SFR* 0000009FH   DATA     BYTE      TIM4_CR1
      01001EBFH   CODE     ---       TIM4_INT
      01002A7FH   CODE     ---       Time2_BEMF_Init
*DEL*:00000000H   CODE     ---       Timer2_Init
*DEL*:00000000H   CODE     ---       Timer3_Init
      010029CFH   CODE     ---       Timer4_Init
*SFR* 000000A8H.1 DATA     BIT       TSDIE
*SFR* 00000088H.5 DATA     BIT       TSDIF
      0200004DH   XDATA    ---       uart2_data_t
      020001D9H   XDATA    WORD      uart2_frameend
      0100252BH   CODE     ---       UART2_Init
      010020FCH   CODE     ---       UART2_INT
      01001C60H   CODE     ---       UART2_ReciveData
*SFR* 0000008AH   DATA     BYTE      UT2_CR
*SFR* 00000089H   DATA     BYTE      UT2_DR
*SFR* 0000009AH   DATA     WORD      UT_BAUD
*SFR* 00000098H   DATA     BYTE      UT_CR
*SFR* 00000099H   DATA     BYTE      UT_DR
*SFR* 00000098H.6 DATA     BIT       UT_MOD0
*SFR* 00000098H.7 DATA     BIT       UT_MOD1
      0200002FH   XDATA    ---       Vari
      010028A1H   CODE     ---       VariablesPreInit
      01002C7DH   CODE     ---       VREFConfigInit
      0200014EH   XDATA    INT       VSP
      0200004BH   XDATA    INT       VSP_LSB
*DEL*:00000000H   CODE     ---       VSPSample



SYMBOL TABLE OF MODULE:  .\Debug\FOC_Fortior_FU6832 (ADDFUNCTION)

      VALUE       REP       CLASS    TYPE      SYMBOL NAME
      ====================================================
      ---         MODULE    ---      ---       ADDFUNCTION
      0200014EH   PUBLIC    XDATA    INT       VSP
      0200014AH   PUBLIC    XDATA    ---       AdcSampleValue
      02000148H   PUBLIC    XDATA    ---       mcFRState
      02000133H   PUBLIC    XDATA    ---       mcCurOffset
      0200012CH   PUBLIC    XDATA    ---       blower_state_t
      0200011BH   PUBLIC    XDATA    ---       mcSpeedRamp
      0200011AH   PUBLIC    XDATA    BYTE      mcState
      02000119H   PUBLIC    XDATA    BYTE      mcFaultSource
      0200004DH   PUBLIC    XDATA    ---       uart2_data_t
      0200004BH   PUBLIC    XDATA    INT       VSP_LSB
      0000005DH   PUBLIC    IDATA    ---       ONOFFTest
      0200003FH   PUBLIC    XDATA    ---       mcPwmInput
      0200002FH   PUBLIC    XDATA    ---       Vari
      02000023H   PUBLIC    XDATA    ---       FG
      02000022H   PUBLIC    XDATA    ---       McStaSet
LX51 LINKER/LOCATER V4.41                                                             01/15/2025  09:25:09  PAGE 13


      02000000H   PUBLIC    XDATA    ---       mcFocCtrl
      01000A67H   PUBLIC    CODE     ---       _Function_1_MS_
      01002B0CH   PUBLIC    CODE     ---       Fault_GetCurrentOffset
      01002042H   PUBLIC    CODE     ---       StarRampDealwith
      01002C4BH   PUBLIC    CODE     ---       _HW_One_PI3
      010022FBH   PUBLIC    CODE     ---       mc_ramp
      010013E2H   PUBLIC    CODE     ---       Speed_response
      01000026H   PUBLIC    CODE     ---       Fault_Detection
      01002C8DH   PUBLIC    CODE     ---       FaultProcess
      000000E8H.3 SFRSYM    DATA     BIT       GP43
      000000B0H.4 SFRSYM    DATA     BIT       GP34
      000000A0H.5 SFRSYM    DATA     BIT       GP25
      00000090H.6 SFRSYM    DATA     BIT       GP16
      00000080H.7 SFRSYM    DATA     BIT       GP07
      00000088H.1 SFRSYM    DATA     BIT       IT01
      00000088H.3 SFRSYM    DATA     BIT       IT10
      000000E8H.4 SFRSYM    DATA     BIT       GP44
      000000B0H.5 SFRSYM    DATA     BIT       GP35
      000000A0H.6 SFRSYM    DATA     BIT       GP26
      00000090H.7 SFRSYM    DATA     BIT       GP17
      00000080H   SFRSYM    DATA     BYTE      P0
      00000088H.4 SFRSYM    DATA     BIT       IT11
      000000C9H   SFRSYM    DATA     BYTE      RST_SR
      000000D9H   SFRSYM    DATA     BYTE      EVT_FILT
      000000E8H.5 SFRSYM    DATA     BIT       GP45
      000000B0H.6 SFRSYM    DATA     BIT       GP36
      000000A0H.7 SFRSYM    DATA     BIT       GP27
      00000090H   SFRSYM    DATA     BYTE      P1
      000000B0H.7 SFRSYM    DATA     BIT       GP37
      000000A0H   SFRSYM    DATA     BYTE      P2
      000000B0H   SFRSYM    DATA     BYTE      P3
      000000E8H   SFRSYM    DATA     BYTE      P4
      000000D0H.6 SFRSYM    DATA     BIT       AC
      000000A8H.7 SFRSYM    DATA     BIT       EA
      000000D5H   SFRSYM    DATA     BYTE      CMP_CR0
      000000D6H   SFRSYM    DATA     BYTE      CMP_CR1
      000000C6H   SFRSYM    DATA     WORD      MDU_A
      000000DAH   SFRSYM    DATA     BYTE      CMP_CR2
      000000C4H   SFRSYM    DATA     WORD      MDU_B
      000000B8H.2 SFRSYM    DATA     BIT       PX00
      000000DCH   SFRSYM    DATA     BYTE      CMP_CR3
      000000F8H   SFRSYM    DATA     BIT       OISUH
      000000C2H   SFRSYM    DATA     WORD      MDU_C
      000000B8H.3 SFRSYM    DATA     BIT       PX01
      000000B8H.4 SFRSYM    DATA     BIT       PX10
      000000E1H   SFRSYM    DATA     BYTE      CMP_CR4
      000000F8H.2 SFRSYM    DATA     BIT       OISVH
      000000CBH   SFRSYM    DATA     BYTE      MDU_D
      000000B8H.5 SFRSYM    DATA     BIT       PX11
      000000F8H.4 SFRSYM    DATA     BIT       OISWH
      000000F8H.1 SFRSYM    DATA     BIT       OISUL
      000000A8H   SFRSYM    DATA     BYTE      IE
      000000F8H.3 SFRSYM    DATA     BIT       OISVL
      000000F9H   SFRSYM    DATA     BYTE      PI_CR
      000000F8H.5 SFRSYM    DATA     BIT       OISWL
      000000D8H   SFRSYM    DATA     BIT       PCMP30
      000000AAH   SFRSYM    DATA     WORD      TIM2__CNTR
      000000D8H.1 SFRSYM    DATA     BIT       PCMP31
      000000A2H   SFRSYM    DATA     WORD      TIM3__CNTR
      00000092H   SFRSYM    DATA     WORD      TIM4__CNTR
      00000098H   SFRSYM    DATA     BIT       RI
      00000098H.6 SFRSYM    DATA     BIT       UT_MOD0
      00000098H.7 SFRSYM    DATA     BIT       UT_MOD1
      000000D0H.7 SFRSYM    DATA     BIT       CY
      00000098H.1 SFRSYM    DATA     BIT       TI
LX51 LINKER/LOCATER V4.41                                                             01/15/2025  09:25:09  PAGE 14


      000000C0H.2 SFRSYM    DATA     BIT       PTIM10
      00000084H   SFRSYM    DATA     BYTE      FLA_KEY
      000000C0H   SFRSYM    DATA     BIT       PTIM20
      000000C0H.3 SFRSYM    DATA     BIT       PTIM11
      00000098H   SFRSYM    DATA     BYTE      UT_CR
      000000C8H.2 SFRSYM    DATA     BIT       PTIM30
      000000C0H.1 SFRSYM    DATA     BIT       PTIM21
      00000099H   SFRSYM    DATA     BYTE      UT_DR
      000000C8H.3 SFRSYM    DATA     BIT       PTIM31
      000000D0H.2 SFRSYM    DATA     BIT       OV
      0000009AH   SFRSYM    DATA     WORD      UT_BAUD
      000000D8H.4 SFRSYM    DATA     BIT       PSPI_UT20
      000000D8H.5 SFRSYM    DATA     BIT       PSPI_UT21
      00000087H   SFRSYM    DATA     BYTE      PCON
      00000088H   SFRSYM    DATA     BYTE      TCON
      00000082H   SFRSYM    DATA     WORD      DPTR
      00000088H.2 SFRSYM    DATA     BIT       IF0
      000000AEH   SFRSYM    DATA     WORD      TIM2__ARR
      000000A1H   SFRSYM    DATA     BYTE      TIM2_CR0
      000000A6H   SFRSYM    DATA     WORD      TIM3__ARR
      0000009CH   SFRSYM    DATA     BYTE      TIM3_CR0
      000000A9H   SFRSYM    DATA     BYTE      TIM2_CR1
      00000096H   SFRSYM    DATA     WORD      TIM4__ARR
      0000009EH   SFRSYM    DATA     BYTE      TIM4_CR0
      0000009DH   SFRSYM    DATA     BYTE      TIM3_CR1
      000000F8H   SFRSYM    DATA     BYTE      DRV_OUT
      0000009FH   SFRSYM    DATA     BYTE      TIM4_CR1
      000000E0H   SFRSYM    DATA     BYTE      ACC
      000000DBH   SFRSYM    DATA     BYTE      LVSR
      000000A8H.4 SFRSYM    DATA     BIT       ES0
      00000085H   SFRSYM    DATA     BYTE      FLA_CR
      000000C0H.4 SFRSYM    DATA     BIT       PADC0
      000000B8H   SFRSYM    DATA     BYTE      IP0
      000000C0H.5 SFRSYM    DATA     BIT       PADC1
      000000C0H   SFRSYM    DATA     BYTE      IP1
      000000C8H   SFRSYM    DATA     BYTE      IP2
      00000098H.2 SFRSYM    DATA     BIT       RB8
      000000D8H   SFRSYM    DATA     BYTE      IP3
      000000A8H   SFRSYM    DATA     BIT       EX0
      00000098H.3 SFRSYM    DATA     BIT       TB8
      000000A8H.2 SFRSYM    DATA     BIT       EX1
      000000D0H   SFRSYM    DATA     BIT       P
      0000008AH   SFRSYM    DATA     BYTE      UT2_CR
      00000089H   SFRSYM    DATA     BYTE      UT2_DR
      00000098H.5 SFRSYM    DATA     BIT       SM2
      000000D8H.6 SFRSYM    DATA     BIT       PDMA0
      000000D8H.7 SFRSYM    DATA     BIT       PDMA1
      000000D0H.3 SFRSYM    DATA     BIT       RS0
      000000D0H.4 SFRSYM    DATA     BIT       RS1
      000000CAH   SFRSYM    DATA     BYTE      MDU_MD
      000000C1H   SFRSYM    DATA     BYTE      MDU_CR
      000000F8H.7 SFRSYM    DATA     BIT       MOE
      000000C0H.6 SFRSYM    DATA     BIT       PCMP0
      000000C0H.7 SFRSYM    DATA     BIT       PCMP1
      00000098H.4 SFRSYM    DATA     BIT       REN
      000000D7H   SFRSYM    DATA     BYTE      CMP_SR
      000000C8H   SFRSYM    DATA     BIT       PRTC0
      000000C8H.1 SFRSYM    DATA     BIT       PRTC1
      000000C8H.6 SFRSYM    DATA     BIT       PTSD0
      000000C8H.7 SFRSYM    DATA     BIT       PTSD1
      000000B8H.6 SFRSYM    DATA     BIT       PDRV0
      000000B8H.7 SFRSYM    DATA     BIT       PDRV1
      000000D1H   SFRSYM    DATA     BYTE      P1_IE
      000000D3H   SFRSYM    DATA     BYTE      P2_IE
      000000D2H   SFRSYM    DATA     BYTE      P1_IF
LX51 LINKER/LOCATER V4.41                                                             01/15/2025  09:25:09  PAGE 15


      000000D4H   SFRSYM    DATA     BYTE      P2_IF
      000000ACH   SFRSYM    DATA     WORD      TIM2__DR
      000000C8H.4 SFRSYM    DATA     BIT       PTIM4S0
      000000FCH   SFRSYM    DATA     BYTE      P0_OE
      000000A4H   SFRSYM    DATA     WORD      TIM3__DR
      000000C8H.5 SFRSYM    DATA     BIT       PTIM4S1
      000000FDH   SFRSYM    DATA     BYTE      P1_OE
      00000094H   SFRSYM    DATA     WORD      TIM4__DR
      000000D0H.5 SFRSYM    DATA     BIT       F0
      000000FEH   SFRSYM    DATA     BYTE      P2_OE
      000000D0H.1 SFRSYM    DATA     BIT       F1
      000000FFH   SFRSYM    DATA     BYTE      P3_OE
      00000080H   SFRSYM    DATA     BIT       GP00
      000000E9H   SFRSYM    DATA     BYTE      P4_OE
      00000090H   SFRSYM    DATA     BIT       GP10
      00000080H.1 SFRSYM    DATA     BIT       GP01
      000000A8H.6 SFRSYM    DATA     BIT       RTCIE
      000000A0H   SFRSYM    DATA     BIT       GP20
      00000090H.1 SFRSYM    DATA     BIT       GP11
      00000080H.2 SFRSYM    DATA     BIT       GP02
      000000B0H   SFRSYM    DATA     BIT       GP30
      000000A0H.1 SFRSYM    DATA     BIT       GP21
      00000090H.2 SFRSYM    DATA     BIT       GP12
      00000080H.3 SFRSYM    DATA     BIT       GP03
      000000D8H.2 SFRSYM    DATA     BIT       PI2C_UT10
      000000B8H   SFRSYM    DATA     BIT       PLVW0
      000000A8H.1 SFRSYM    DATA     BIT       TSDIE
      000000D0H   SFRSYM    DATA     BYTE      PSW
      000000B0H.1 SFRSYM    DATA     BIT       GP31
      000000A0H.2 SFRSYM    DATA     BIT       GP22
      00000090H.3 SFRSYM    DATA     BIT       GP13
      00000080H.4 SFRSYM    DATA     BIT       GP04
      000000D8H.3 SFRSYM    DATA     BIT       PI2C_UT11
      000000B8H.1 SFRSYM    DATA     BIT       PLVW1
      000000A8H.3 SFRSYM    DATA     BIT       SPIIE
      00000088H.5 SFRSYM    DATA     BIT       TSDIF
      000000B0H.2 SFRSYM    DATA     BIT       GP32
      000000A0H.3 SFRSYM    DATA     BIT       GP23
      00000090H.4 SFRSYM    DATA     BIT       GP14
      00000080H.5 SFRSYM    DATA     BIT       GP05
      000000E8H.2 SFRSYM    DATA     BIT       GP42
      000000B0H.3 SFRSYM    DATA     BIT       GP33
      000000A0H.4 SFRSYM    DATA     BIT       GP24
      00000090H.5 SFRSYM    DATA     BIT       GP15
      00000080H.6 SFRSYM    DATA     BIT       GP06
      00000088H   SFRSYM    DATA     BIT       IT00

      01002C8DH   BLOCK     CODE     ---       LVL=0
      01002C8DH   LINE      CODE     ---       #35
      01002C8DH   LINE      CODE     ---       #36
      01002C8DH   LINE      CODE     ---       #37
      01002C94H   LINE      CODE     ---       #38
      01002C98H   LINE      CODE     ---       #39
      01002C9AH   LINE      CODE     ---       #40
      ---         BLOCKEND  ---      ---       LVL=0

      01000026H   BLOCK     CODE     ---       LVL=0
      01000026H   LINE      CODE     ---       #48
      01000026H   LINE      CODE     ---       #49
      01000026H   LINE      CODE     ---       #51
      01000029H   LINE      CODE     ---       #53
      01000029H   LINE      CODE     ---       #54
      0100002CH   LINE      CODE     ---       #55
      0100002CH   LINE      CODE     ---       #58
      0100002CH   LINE      CODE     ---       #59
LX51 LINKER/LOCATER V4.41                                                             01/15/2025  09:25:09  PAGE 16


      0100002FH   LINE      CODE     ---       #60
      0100002FH   LINE      CODE     ---       #63
      0100002FH   LINE      CODE     ---       #64
      01000032H   LINE      CODE     ---       #65
      01000032H   LINE      CODE     ---       #68
      01000032H   LINE      CODE     ---       #69
      01000035H   LINE      CODE     ---       #70
      01000035H   LINE      CODE     ---       #73
      ---         BLOCKEND  ---      ---       LVL=0

      010013E2H   BLOCK     CODE     ---       LVL=0
      010013E2H   LINE      CODE     ---       #118
      010013E2H   LINE      CODE     ---       #119
      010013E2H   LINE      CODE     ---       #120
      010013F3H   LINE      CODE     ---       #121
      010013F3H   LINE      CODE     ---       #122
      01001400H   LINE      CODE     ---       #123
      01001400H   LINE      CODE     ---       #124
      01001400H   LINE      CODE     ---       #125
      01001400H   LINE      CODE     ---       #130
      01001414H   LINE      CODE     ---       #132
      01001414H   LINE      CODE     ---       #133
      0100141AH   LINE      CODE     ---       #134
      01001424H   LINE      CODE     ---       #135
      0100142CH   LINE      CODE     ---       #136
      01001433H   LINE      CODE     ---       #137
      0100143CH   LINE      CODE     ---       #138
      01001445H   LINE      CODE     ---       #139
      01001448H   LINE      CODE     ---       #141
      01001448H   LINE      CODE     ---       #142
      01001452H   LINE      CODE     ---       #143
      01001452H   LINE      CODE     ---       #149
      01001462H   LINE      CODE     ---       #150
      01001466H   LINE      CODE     ---       #151
      01001466H   LINE      CODE     ---       #152
      01001466H   LINE      CODE     ---       #153
      01001469H   LINE      CODE     ---       #155
      01001469H   LINE      CODE     ---       #156
      01001469H   LINE      CODE     ---       #157
      01001477H   LINE      CODE     ---       #159
      01001489H   LINE      CODE     ---       #160
      01001489H   LINE      CODE     ---       #161
      0100148DH   LINE      CODE     ---       #192
      0100148DH   LINE      CODE     ---       #193
      01001490H   LINE      CODE     ---       #195
      01001490H   LINE      CODE     ---       #196
      010014B0H   LINE      CODE     ---       #197
      010014B8H   LINE      CODE     ---       #198
      010014B8H   LINE      CODE     ---       #205
      010014B8H   LINE      CODE     ---       #208
      010014C9H   LINE      CODE     ---       #209
      010014C9H   LINE      CODE     ---       #210
      010014D8H   LINE      CODE     ---       #211
      010014E3H   LINE      CODE     ---       #212
      010014EBH   LINE      CODE     ---       #213
      010014EDH   LINE      CODE     ---       #214
      01001501H   LINE      CODE     ---       #215
      01001501H   LINE      CODE     ---       #216
      0100150DH   LINE      CODE     ---       #217
      01001518H   LINE      CODE     ---       #218
      01001524H   LINE      CODE     ---       #219
      01001525H   LINE      CODE     ---       #221
      01001525H   LINE      CODE     ---       #222
      0100152CH   LINE      CODE     ---       #223
      0100152CH   LINE      CODE     ---       #224
LX51 LINKER/LOCATER V4.41                                                             01/15/2025  09:25:09  PAGE 17


      0100152CH   LINE      CODE     ---       #225
      0100152CH   LINE      CODE     ---       #226
      0100152CH   LINE      CODE     ---       #227
      0100152CH   LINE      CODE     ---       #228
      0100152CH   LINE      CODE     ---       #229
      ---         BLOCKEND  ---      ---       LVL=0

      010022FBH   BLOCK     CODE     ---       LVL=0
      010022FBH   LINE      CODE     ---       #238
      010022FBH   LINE      CODE     ---       #239
      010022FBH   LINE      CODE     ---       #240
      0100230FH   LINE      CODE     ---       #241
      0100230FH   LINE      CODE     ---       #242
      0100231EH   LINE      CODE     ---       #244
      01002338H   LINE      CODE     ---       #245
      01002338H   LINE      CODE     ---       #246
      0100234CH   LINE      CODE     ---       #247
      0100234CH   LINE      CODE     ---       #248
      01002357H   LINE      CODE     ---       #249
      01002358H   LINE      CODE     ---       #251
      01002358H   LINE      CODE     ---       #252
      01002365H   LINE      CODE     ---       #253
      01002365H   LINE      CODE     ---       #254
      01002366H   LINE      CODE     ---       #256
      01002366H   LINE      CODE     ---       #257
      01002382H   LINE      CODE     ---       #258
      01002382H   LINE      CODE     ---       #259
      01002390H   LINE      CODE     ---       #260
      01002391H   LINE      CODE     ---       #262
      01002391H   LINE      CODE     ---       #263
      01002399H   LINE      CODE     ---       #264
      01002399H   LINE      CODE     ---       #265
      01002399H   LINE      CODE     ---       #266
      01002399H   LINE      CODE     ---       #267
      ---         BLOCKEND  ---      ---       LVL=0

      01002C4BH   BLOCK     CODE     ---       LVL=0
      00000006H   SYMBOL    DATA     INT       Xn1
      01002C4BH   LINE      CODE     ---       #275
      01002C4BH   LINE      CODE     ---       #276
      01002C4BH   LINE      CODE     ---       #277
      01002C53H   LINE      CODE     ---       #278
      01002C56H   LINE      CODE     ---       #280
      01002C5BH   LINE      CODE     ---       #282
      01002C63H   LINE      CODE     ---       #283
      ---         BLOCKEND  ---      ---       LVL=0
      00000006H   SYMBOL    DATA     INT       Xn1

      01002042H   BLOCK     CODE     ---       LVL=0
      01002042H   LINE      CODE     ---       #381
      01002042H   LINE      CODE     ---       #382
      01002042H   LINE      CODE     ---       #383
      01002048H   LINE      CODE     ---       #384
      01002048H   LINE      CODE     ---       #391
      01002059H   LINE      CODE     ---       #392
      01002059H   LINE      CODE     ---       #393
      01002065H   LINE      CODE     ---       #394
      01002071H   LINE      CODE     ---       #395
      01002071H   LINE      CODE     ---       #396
      01002071H   LINE      CODE     ---       #398
      0100207CH   LINE      CODE     ---       #399
      0100207CH   LINE      CODE     ---       #400
      0100208AH   LINE      CODE     ---       #401
      0100208AH   LINE      CODE     ---       #402
      01002094H   LINE      CODE     ---       #403
LX51 LINKER/LOCATER V4.41                                                             01/15/2025  09:25:09  PAGE 18


      0100209BH   LINE      CODE     ---       #404
      0100209CH   LINE      CODE     ---       #405
      010020A2H   LINE      CODE     ---       #406
      010020A2H   LINE      CODE     ---       #407
      010020ACH   LINE      CODE     ---       #408
      010020B3H   LINE      CODE     ---       #409
      010020B4H   LINE      CODE     ---       #410
      010020BAH   LINE      CODE     ---       #411
      010020BAH   LINE      CODE     ---       #412
      010020C4H   LINE      CODE     ---       #413
      010020CBH   LINE      CODE     ---       #414
      010020CCH   LINE      CODE     ---       #415
      010020D2H   LINE      CODE     ---       #416
      010020D2H   LINE      CODE     ---       #417
      010020DCH   LINE      CODE     ---       #418
      010020E3H   LINE      CODE     ---       #419
      010020E4H   LINE      CODE     ---       #420
      010020EAH   LINE      CODE     ---       #421
      010020EAH   LINE      CODE     ---       #422
      010020F4H   LINE      CODE     ---       #423
      010020FBH   LINE      CODE     ---       #424
      010020FBH   LINE      CODE     ---       #425
      010020FBH   LINE      CODE     ---       #426
      ---         BLOCKEND  ---      ---       LVL=0

      01002B0CH   BLOCK     CODE     ---       LVL=0
      01002B0CH   LINE      CODE     ---       #507
      01002B0CH   LINE      CODE     ---       #508
      01002B0CH   LINE      CODE     ---       #509
      01002B13H   LINE      CODE     ---       #510
      01002B13H   LINE      CODE     ---       #512
      01002B13H   LINE      CODE     ---       #513
      01002B30H   LINE      CODE     ---       #514
      01002B30H   LINE      CODE     ---       #515
      01002B36H   LINE      CODE     ---       #516
      01002B36H   LINE      CODE     ---       #517
      01002B36H   LINE      CODE     ---       #536
      01002B36H   LINE      CODE     ---       #537
      ---         BLOCKEND  ---      ---       LVL=0

      01000A67H   BLOCK     CODE     ---       LVL=0
      020001CDH   SYMBOL    XDATA    DWORD     speed
      01000A67H   LINE      CODE     ---       #545
      01000A6DH   LINE      CODE     ---       #546
      01000A6DH   LINE      CODE     ---       #547
      01000A74H   LINE      CODE     ---       #548
      01000A83H   LINE      CODE     ---       #549
      01000A92H   LINE      CODE     ---       #550
      01000AA1H   LINE      CODE     ---       #551
      01000AB0H   LINE      CODE     ---       #552
      01000ABFH   LINE      CODE     ---       #553
      01000ACEH   LINE      CODE     ---       #554
      01000ADDH   LINE      CODE     ---       #555
      01000AECH   LINE      CODE     ---       #557
      01000AF7H   LINE      CODE     ---       #558
      01000AF7H   LINE      CODE     ---       #559
      01000B10H   LINE      CODE     ---       #560
      01000B53H   LINE      CODE     ---       #561
      01000B9BH   LINE      CODE     ---       #562
      01000B9BH   LINE      CODE     ---       #564
      01000BADH   LINE      CODE     ---       #565
      01000BADH   LINE      CODE     ---       #566
      01000BF1H   LINE      CODE     ---       #567
      01000C4FH   LINE      CODE     ---       #568
      01000C51H   LINE      CODE     ---       #570
LX51 LINKER/LOCATER V4.41                                                             01/15/2025  09:25:09  PAGE 19


      01000C51H   LINE      CODE     ---       #571
      01000C58H   LINE      CODE     ---       #572
      01000C58H   LINE      CODE     ---       #574
      01000C89H   LINE      CODE     ---       #576
      01000C8CH   LINE      CODE     ---       #578
      01000C8CH   LINE      CODE     ---       #584
      01000C8CH   LINE      CODE     ---       #585
      01000C92H   LINE      CODE     ---       #586
      01000CC5H   LINE      CODE     ---       #587
      01000CC5H   LINE      CODE     ---       #593
      01000CC5H   LINE      CODE     ---       #599
      01000CD4H   LINE      CODE     ---       #603
      01000D19H   LINE      CODE     ---       #605
      01000D1CH   LINE      CODE     ---       #607
      01000D2BH   LINE      CODE     ---       #608
      01000D2BH   LINE      CODE     ---       #609
      01000D37H   LINE      CODE     ---       #610
      01000D37H   LINE      CODE     ---       #612
      01000D46H   LINE      CODE     ---       #613
      01000D46H   LINE      CODE     ---       #614
      01000D52H   LINE      CODE     ---       #615
      01000D52H   LINE      CODE     ---       #628
      01000D55H   LINE      CODE     ---       #630
      01000D5CH   LINE      CODE     ---       #631
      01000D5CH   LINE      CODE     ---       #632
      01000D5FH   LINE      CODE     ---       #633
      01000D60H   LINE      CODE     ---       #635
      01000D60H   LINE      CODE     ---       #636
      01000D63H   LINE      CODE     ---       #637
      01000D69H   LINE      CODE     ---       #638
      01000D6FH   LINE      CODE     ---       #639
      01000D74H   LINE      CODE     ---       #640
      01000D74H   LINE      CODE     ---       #641
      ---         BLOCKEND  ---      ---       LVL=0

      ---         MODULE    ---      ---       INTERRUPT
      020001E3H   PUBLIC    XDATA    BYTE      g_1mTick
      020001DBH   PUBLIC    XDATA    ---       spidebug
      020001D9H   PUBLIC    XDATA    WORD      uart2_frameend
      010020FCH   PUBLIC    CODE     ---       UART2_INT
      01001EBFH   PUBLIC    CODE     ---       TIM4_INT
      01002C16H   PUBLIC    CODE     ---       CMP3_INT
      01002BAEH   PUBLIC    CODE     ---       SYStick_INT
      01002434H   PUBLIC    CODE     ---       TIM3_INT
      0100284EH   PUBLIC    CODE     ---       CMP_ISR
      0100003EH   PUBLIC    CODE     ---       TIM2_INT
      01002B89H   PUBLIC    CODE     ---       DRV_ISR
      01002C31H   PUBLIC    CODE     ---       LVW_TSD_INT
      000000E8H.3 SFRSYM    DATA     BIT       GP43
      000000B0H.4 SFRSYM    DATA     BIT       GP34
      000000A0H.5 SFRSYM    DATA     BIT       GP25
      00000090H.6 SFRSYM    DATA     BIT       GP16
      00000080H.7 SFRSYM    DATA     BIT       GP07
      00000088H.1 SFRSYM    DATA     BIT       IT01
      00000088H.3 SFRSYM    DATA     BIT       IT10
      000000E8H.4 SFRSYM    DATA     BIT       GP44
      000000B0H.5 SFRSYM    DATA     BIT       GP35
      000000A0H.6 SFRSYM    DATA     BIT       GP26
      00000090H.7 SFRSYM    DATA     BIT       GP17
      00000080H   SFRSYM    DATA     BYTE      P0
      00000088H.4 SFRSYM    DATA     BIT       IT11
      000000C9H   SFRSYM    DATA     BYTE      RST_SR
      000000D9H   SFRSYM    DATA     BYTE      EVT_FILT
      000000E8H.5 SFRSYM    DATA     BIT       GP45
      000000B0H.6 SFRSYM    DATA     BIT       GP36
LX51 LINKER/LOCATER V4.41                                                             01/15/2025  09:25:09  PAGE 20


      000000A0H.7 SFRSYM    DATA     BIT       GP27
      00000090H   SFRSYM    DATA     BYTE      P1
      000000B0H.7 SFRSYM    DATA     BIT       GP37
      000000A0H   SFRSYM    DATA     BYTE      P2
      000000B0H   SFRSYM    DATA     BYTE      P3
      000000E8H   SFRSYM    DATA     BYTE      P4
      000000D0H.6 SFRSYM    DATA     BIT       AC
      000000A8H.7 SFRSYM    DATA     BIT       EA
      000000D5H   SFRSYM    DATA     BYTE      CMP_CR0
      000000D6H   SFRSYM    DATA     BYTE      CMP_CR1
      000000C6H   SFRSYM    DATA     WORD      MDU_A
      000000DAH   SFRSYM    DATA     BYTE      CMP_CR2
      000000C4H   SFRSYM    DATA     WORD      MDU_B
      000000B8H.2 SFRSYM    DATA     BIT       PX00
      000000DCH   SFRSYM    DATA     BYTE      CMP_CR3
      000000F8H   SFRSYM    DATA     BIT       OISUH
      000000C2H   SFRSYM    DATA     WORD      MDU_C
      000000B8H.3 SFRSYM    DATA     BIT       PX01
      000000B8H.4 SFRSYM    DATA     BIT       PX10
      000000E1H   SFRSYM    DATA     BYTE      CMP_CR4
      000000F8H.2 SFRSYM    DATA     BIT       OISVH
      000000CBH   SFRSYM    DATA     BYTE      MDU_D
      000000B8H.5 SFRSYM    DATA     BIT       PX11
      000000F8H.4 SFRSYM    DATA     BIT       OISWH
      000000F8H.1 SFRSYM    DATA     BIT       OISUL
      000000A8H   SFRSYM    DATA     BYTE      IE
      000000F8H.3 SFRSYM    DATA     BIT       OISVL
      000000F9H   SFRSYM    DATA     BYTE      PI_CR
      000000F8H.5 SFRSYM    DATA     BIT       OISWL
      000000D8H   SFRSYM    DATA     BIT       PCMP30
      000000AAH   SFRSYM    DATA     WORD      TIM2__CNTR
      000000D8H.1 SFRSYM    DATA     BIT       PCMP31
      000000A2H   SFRSYM    DATA     WORD      TIM3__CNTR
      00000092H   SFRSYM    DATA     WORD      TIM4__CNTR
      00000098H   SFRSYM    DATA     BIT       RI
      00000098H.6 SFRSYM    DATA     BIT       UT_MOD0
      00000098H.7 SFRSYM    DATA     BIT       UT_MOD1
      000000D0H.7 SFRSYM    DATA     BIT       CY
      00000098H.1 SFRSYM    DATA     BIT       TI
      000000C0H.2 SFRSYM    DATA     BIT       PTIM10
      00000084H   SFRSYM    DATA     BYTE      FLA_KEY
      000000C0H   SFRSYM    DATA     BIT       PTIM20
      000000C0H.3 SFRSYM    DATA     BIT       PTIM11
      00000098H   SFRSYM    DATA     BYTE      UT_CR
      000000C8H.2 SFRSYM    DATA     BIT       PTIM30
      000000C0H.1 SFRSYM    DATA     BIT       PTIM21
      00000099H   SFRSYM    DATA     BYTE      UT_DR
      000000C8H.3 SFRSYM    DATA     BIT       PTIM31
      000000D0H.2 SFRSYM    DATA     BIT       OV
      0000009AH   SFRSYM    DATA     WORD      UT_BAUD
      000000D8H.4 SFRSYM    DATA     BIT       PSPI_UT20
      000000D8H.5 SFRSYM    DATA     BIT       PSPI_UT21
      00000087H   SFRSYM    DATA     BYTE      PCON
      00000088H   SFRSYM    DATA     BYTE      TCON
      00000082H   SFRSYM    DATA     WORD      DPTR
      00000088H.2 SFRSYM    DATA     BIT       IF0
      000000AEH   SFRSYM    DATA     WORD      TIM2__ARR
      000000A1H   SFRSYM    DATA     BYTE      TIM2_CR0
      000000A6H   SFRSYM    DATA     WORD      TIM3__ARR
      0000009CH   SFRSYM    DATA     BYTE      TIM3_CR0
      000000A9H   SFRSYM    DATA     BYTE      TIM2_CR1
      00000096H   SFRSYM    DATA     WORD      TIM4__ARR
      0000009EH   SFRSYM    DATA     BYTE      TIM4_CR0
      0000009DH   SFRSYM    DATA     BYTE      TIM3_CR1
      000000F8H   SFRSYM    DATA     BYTE      DRV_OUT
LX51 LINKER/LOCATER V4.41                                                             01/15/2025  09:25:09  PAGE 21


      0000009FH   SFRSYM    DATA     BYTE      TIM4_CR1
      000000E0H   SFRSYM    DATA     BYTE      ACC
      000000DBH   SFRSYM    DATA     BYTE      LVSR
      000000A8H.4 SFRSYM    DATA     BIT       ES0
      00000085H   SFRSYM    DATA     BYTE      FLA_CR
      000000C0H.4 SFRSYM    DATA     BIT       PADC0
      000000B8H   SFRSYM    DATA     BYTE      IP0
      000000C0H.5 SFRSYM    DATA     BIT       PADC1
      000000C0H   SFRSYM    DATA     BYTE      IP1
      000000C8H   SFRSYM    DATA     BYTE      IP2
      00000098H.2 SFRSYM    DATA     BIT       RB8
      000000D8H   SFRSYM    DATA     BYTE      IP3
      000000A8H   SFRSYM    DATA     BIT       EX0
      00000098H.3 SFRSYM    DATA     BIT       TB8
      000000A8H.2 SFRSYM    DATA     BIT       EX1
      000000D0H   SFRSYM    DATA     BIT       P
      0000008AH   SFRSYM    DATA     BYTE      UT2_CR
      00000089H   SFRSYM    DATA     BYTE      UT2_DR
      00000098H.5 SFRSYM    DATA     BIT       SM2
      000000D8H.6 SFRSYM    DATA     BIT       PDMA0
      000000D8H.7 SFRSYM    DATA     BIT       PDMA1
      000000D0H.3 SFRSYM    DATA     BIT       RS0
      000000D0H.4 SFRSYM    DATA     BIT       RS1
      000000CAH   SFRSYM    DATA     BYTE      MDU_MD
      000000C1H   SFRSYM    DATA     BYTE      MDU_CR
      000000F8H.7 SFRSYM    DATA     BIT       MOE
      000000C0H.6 SFRSYM    DATA     BIT       PCMP0
      000000C0H.7 SFRSYM    DATA     BIT       PCMP1
      00000098H.4 SFRSYM    DATA     BIT       REN
      000000D7H   SFRSYM    DATA     BYTE      CMP_SR
      000000C8H   SFRSYM    DATA     BIT       PRTC0
      000000C8H.1 SFRSYM    DATA     BIT       PRTC1
      000000C8H.6 SFRSYM    DATA     BIT       PTSD0
      000000C8H.7 SFRSYM    DATA     BIT       PTSD1
      000000B8H.6 SFRSYM    DATA     BIT       PDRV0
      000000B8H.7 SFRSYM    DATA     BIT       PDRV1
      000000D1H   SFRSYM    DATA     BYTE      P1_IE
      000000D3H   SFRSYM    DATA     BYTE      P2_IE
      000000D2H   SFRSYM    DATA     BYTE      P1_IF
      000000D4H   SFRSYM    DATA     BYTE      P2_IF
      000000ACH   SFRSYM    DATA     WORD      TIM2__DR
      000000C8H.4 SFRSYM    DATA     BIT       PTIM4S0
      000000FCH   SFRSYM    DATA     BYTE      P0_OE
      000000A4H   SFRSYM    DATA     WORD      TIM3__DR
      000000C8H.5 SFRSYM    DATA     BIT       PTIM4S1
      000000FDH   SFRSYM    DATA     BYTE      P1_OE
      00000094H   SFRSYM    DATA     WORD      TIM4__DR
      000000D0H.5 SFRSYM    DATA     BIT       F0
      000000FEH   SFRSYM    DATA     BYTE      P2_OE
      000000D0H.1 SFRSYM    DATA     BIT       F1
      000000FFH   SFRSYM    DATA     BYTE      P3_OE
      00000080H   SFRSYM    DATA     BIT       GP00
      000000E9H   SFRSYM    DATA     BYTE      P4_OE
      00000090H   SFRSYM    DATA     BIT       GP10
      00000080H.1 SFRSYM    DATA     BIT       GP01
      000000A8H.6 SFRSYM    DATA     BIT       RTCIE
      000000A0H   SFRSYM    DATA     BIT       GP20
      00000090H.1 SFRSYM    DATA     BIT       GP11
      00000080H.2 SFRSYM    DATA     BIT       GP02
      000000B0H   SFRSYM    DATA     BIT       GP30
      000000A0H.1 SFRSYM    DATA     BIT       GP21
      00000090H.2 SFRSYM    DATA     BIT       GP12
      00000080H.3 SFRSYM    DATA     BIT       GP03
      000000D8H.2 SFRSYM    DATA     BIT       PI2C_UT10
      000000B8H   SFRSYM    DATA     BIT       PLVW0
LX51 LINKER/LOCATER V4.41                                                             01/15/2025  09:25:09  PAGE 22


      000000A8H.1 SFRSYM    DATA     BIT       TSDIE
      000000D0H   SFRSYM    DATA     BYTE      PSW
      000000B0H.1 SFRSYM    DATA     BIT       GP31
      000000A0H.2 SFRSYM    DATA     BIT       GP22
      00000090H.3 SFRSYM    DATA     BIT       GP13
      00000080H.4 SFRSYM    DATA     BIT       GP04
      000000D8H.3 SFRSYM    DATA     BIT       PI2C_UT11
      000000B8H.1 SFRSYM    DATA     BIT       PLVW1
      000000A8H.3 SFRSYM    DATA     BIT       SPIIE
      00000088H.5 SFRSYM    DATA     BIT       TSDIF
      000000B0H.2 SFRSYM    DATA     BIT       GP32
      000000A0H.3 SFRSYM    DATA     BIT       GP23
      00000090H.4 SFRSYM    DATA     BIT       GP14
      00000080H.5 SFRSYM    DATA     BIT       GP05
      000000E8H.2 SFRSYM    DATA     BIT       GP42
      000000B0H.3 SFRSYM    DATA     BIT       GP33
      000000A0H.4 SFRSYM    DATA     BIT       GP24
      00000090H.5 SFRSYM    DATA     BIT       GP15
      00000080H.6 SFRSYM    DATA     BIT       GP06
      00000088H   SFRSYM    DATA     BIT       IT00

      01002C31H   BLOCK     CODE     ---       LVL=0
      01002C31H   LINE      CODE     ---       #21
      01002C33H   LINE      CODE     ---       #23
      01002C38H   LINE      CODE     ---       #24
      01002C38H   LINE      CODE     ---       #25
      01002C3DH   LINE      CODE     ---       #26
      01002C3DH   LINE      CODE     ---       #30
      01002C40H   LINE      CODE     ---       #31
      01002C40H   LINE      CODE     ---       #33
      01002C43H   LINE      CODE     ---       #34
      01002C43H   LINE      CODE     ---       #36
      01002C46H   LINE      CODE     ---       #37
      01002C46H   LINE      CODE     ---       #38
      01002C48H   LINE      CODE     ---       #39
      01002C48H   LINE      CODE     ---       #40
      ---         BLOCKEND  ---      ---       LVL=0

      01002B89H   BLOCK     CODE     ---       LVL=0
      01002B89H   LINE      CODE     ---       #65
      01002B8FH   LINE      CODE     ---       #67
      01002B96H   LINE      CODE     ---       #68
      01002B96H   LINE      CODE     ---       #69
      01002B9AH   LINE      CODE     ---       #70
      01002B9AH   LINE      CODE     ---       #72
      01002BA1H   LINE      CODE     ---       #73
      01002BA1H   LINE      CODE     ---       #81
      01002BA7H   LINE      CODE     ---       #82
      01002BA7H   LINE      CODE     ---       #83
      ---         BLOCKEND  ---      ---       LVL=0

      0100003EH   BLOCK     CODE     ---       LVL=0
      0100003EH   LINE      CODE     ---       #90
      01000040H   LINE      CODE     ---       #92
      01000045H   LINE      CODE     ---       #93
      01000045H   LINE      CODE     ---       #94
      01000048H   LINE      CODE     ---       #95
      01000048H   LINE      CODE     ---       #96
      ---         BLOCKEND  ---      ---       LVL=0

      0100284EH   BLOCK     CODE     ---       LVL=0
      0100284EH   LINE      CODE     ---       #103
      0100286BH   LINE      CODE     ---       #105
      0100287AH   LINE      CODE     ---       #106
      0100287AH   LINE      CODE     ---       #107
LX51 LINKER/LOCATER V4.41                                                             01/15/2025  09:25:09  PAGE 23


      0100287DH   LINE      CODE     ---       #108
      01002880H   LINE      CODE     ---       #109
      01002883H   LINE      CODE     ---       #110
      01002886H   LINE      CODE     ---       #111
      01002886H   LINE      CODE     ---       #112
      ---         BLOCKEND  ---      ---       LVL=0

      01002434H   BLOCK     CODE     ---       LVL=0
      01002434H   LINE      CODE     ---       #119
      0100243AH   LINE      CODE     ---       #121
      0100243FH   LINE      CODE     ---       #122
      0100243FH   LINE      CODE     ---       #123
      0100244BH   LINE      CODE     ---       #124
      0100244BH   LINE      CODE     ---       #125
      01002455H   LINE      CODE     ---       #126
      0100245DH   LINE      CODE     ---       #127
      01002465H   LINE      CODE     ---       #128
      01002465H   LINE      CODE     ---       #130
      01002468H   LINE      CODE     ---       #131
      01002468H   LINE      CODE     ---       #133
      0100246DH   LINE      CODE     ---       #134
      0100246DH   LINE      CODE     ---       #135
      01002479H   LINE      CODE     ---       #136
      01002479H   LINE      CODE     ---       #137
      01002481H   LINE      CODE     ---       #138
      01002481H   LINE      CODE     ---       #139
      01002488H   LINE      CODE     ---       #140
      01002490H   LINE      CODE     ---       #141
      01002492H   LINE      CODE     ---       #143
      01002492H   LINE      CODE     ---       #144
      01002496H   LINE      CODE     ---       #145
      0100249EH   LINE      CODE     ---       #146
      0100249EH   LINE      CODE     ---       #148
      010024A6H   LINE      CODE     ---       #149
      010024A6H   LINE      CODE     ---       #151
      010024A9H   LINE      CODE     ---       #152
      010024A9H   LINE      CODE     ---       #153
      ---         BLOCKEND  ---      ---       LVL=0

      01002BAEH   BLOCK     CODE     ---       LVL=0
      01002BAEH   LINE      CODE     ---       #161
      01002BB4H   LINE      CODE     ---       #163
      01002BBBH   LINE      CODE     ---       #164
      01002BBBH   LINE      CODE     ---       #165
      01002BC1H   LINE      CODE     ---       #166
      01002BCAH   LINE      CODE     ---       #167
      01002BCAH   LINE      CODE     ---       #168
      ---         BLOCKEND  ---      ---       LVL=0

      01002C16H   BLOCK     CODE     ---       LVL=0
      01002C16H   LINE      CODE     ---       #177
      01002C1CH   LINE      CODE     ---       #179
      01002C21H   LINE      CODE     ---       #180
      01002C21H   LINE      CODE     ---       #182
      01002C27H   LINE      CODE     ---       #183
      01002C2AH   LINE      CODE     ---       #184
      01002C2AH   LINE      CODE     ---       #185
      ---         BLOCKEND  ---      ---       LVL=0

      01001EBFH   BLOCK     CODE     ---       LVL=0
      01001EBFH   LINE      CODE     ---       #193
      01001EDCH   LINE      CODE     ---       #195
      01001EE4H   LINE      CODE     ---       #196
      01001EE4H   LINE      CODE     ---       #197
      01001F09H   LINE      CODE     ---       #199
LX51 LINKER/LOCATER V4.41                                                             01/15/2025  09:25:09  PAGE 24


      01001F24H   LINE      CODE     ---       #200
      01001F24H   LINE      CODE     ---       #201
      01001F40H   LINE      CODE     ---       #202
      01001F4EH   LINE      CODE     ---       #203
      01001F65H   LINE      CODE     ---       #204
      01001F65H   LINE      CODE     ---       #205
      01001F68H   LINE      CODE     ---       #206
      01001F68H   LINE      CODE     ---       #207
      ---         BLOCKEND  ---      ---       LVL=0

      010020FCH   BLOCK     CODE     ---       LVL=0
      010020FCH   LINE      CODE     ---       #216
      01002119H   LINE      CODE     ---       #218
      0100211EH   LINE      CODE     ---       #219
      0100211EH   LINE      CODE     ---       #220
      0100212FH   LINE      CODE     ---       #221
      0100214AH   LINE      CODE     ---       #222
      01002150H   LINE      CODE     ---       #223
      01002153H   LINE      CODE     ---       #225
      01002159H   LINE      CODE     ---       #226
      0100215FH   LINE      CODE     ---       #227
      01002161H   LINE      CODE     ---       #228
      01002164H   LINE      CODE     ---       #229
      01002164H   LINE      CODE     ---       #230
      01002169H   LINE      CODE     ---       #231
      01002173H   LINE      CODE     ---       #232
      01002184H   LINE      CODE     ---       #233
      0100218DH   LINE      CODE     ---       #234
      0100218FH   LINE      CODE     ---       #235
      0100218FH   LINE      CODE     ---       #236
      01002192H   LINE      CODE     ---       #237
      01002192H   LINE      CODE     ---       #238
      ---         BLOCKEND  ---      ---       LVL=0

      ---         MODULE    ---      ---       MAIN
      01002C7DH   PUBLIC    CODE     ---       VREFConfigInit
      01000066H   PUBLIC    CODE     ---       SoftwareInit
      01002B62H   PUBLIC    CODE     ---       HardwareInit
      010010DFH   PUBLIC    CODE     ---       main
      000000E8H.3 SFRSYM    DATA     BIT       GP43
      000000B0H.4 SFRSYM    DATA     BIT       GP34
      000000A0H.5 SFRSYM    DATA     BIT       GP25
      00000090H.6 SFRSYM    DATA     BIT       GP16
      00000080H.7 SFRSYM    DATA     BIT       GP07
      00000088H.1 SFRSYM    DATA     BIT       IT01
      00000088H.3 SFRSYM    DATA     BIT       IT10
      000000E8H.4 SFRSYM    DATA     BIT       GP44
      000000B0H.5 SFRSYM    DATA     BIT       GP35
      000000A0H.6 SFRSYM    DATA     BIT       GP26
      00000090H.7 SFRSYM    DATA     BIT       GP17
      00000080H   SFRSYM    DATA     BYTE      P0
      00000088H.4 SFRSYM    DATA     BIT       IT11
      000000C9H   SFRSYM    DATA     BYTE      RST_SR
      000000D9H   SFRSYM    DATA     BYTE      EVT_FILT
      000000E8H.5 SFRSYM    DATA     BIT       GP45
      000000B0H.6 SFRSYM    DATA     BIT       GP36
      000000A0H.7 SFRSYM    DATA     BIT       GP27
      00000090H   SFRSYM    DATA     BYTE      P1
      000000B0H.7 SFRSYM    DATA     BIT       GP37
      000000A0H   SFRSYM    DATA     BYTE      P2
      000000B0H   SFRSYM    DATA     BYTE      P3
      000000E8H   SFRSYM    DATA     BYTE      P4
      000000D0H.6 SFRSYM    DATA     BIT       AC
      000000A8H.7 SFRSYM    DATA     BIT       EA
      000000D5H   SFRSYM    DATA     BYTE      CMP_CR0
LX51 LINKER/LOCATER V4.41                                                             01/15/2025  09:25:09  PAGE 25


      000000D6H   SFRSYM    DATA     BYTE      CMP_CR1
      000000C6H   SFRSYM    DATA     WORD      MDU_A
      000000DAH   SFRSYM    DATA     BYTE      CMP_CR2
      000000C4H   SFRSYM    DATA     WORD      MDU_B
      000000B8H.2 SFRSYM    DATA     BIT       PX00
      000000DCH   SFRSYM    DATA     BYTE      CMP_CR3
      000000F8H   SFRSYM    DATA     BIT       OISUH
      000000C2H   SFRSYM    DATA     WORD      MDU_C
      000000B8H.3 SFRSYM    DATA     BIT       PX01
      000000B8H.4 SFRSYM    DATA     BIT       PX10
      000000E1H   SFRSYM    DATA     BYTE      CMP_CR4
      000000F8H.2 SFRSYM    DATA     BIT       OISVH
      000000CBH   SFRSYM    DATA     BYTE      MDU_D
      000000B8H.5 SFRSYM    DATA     BIT       PX11
      000000F8H.4 SFRSYM    DATA     BIT       OISWH
      000000F8H.1 SFRSYM    DATA     BIT       OISUL
      000000A8H   SFRSYM    DATA     BYTE      IE
      000000F8H.3 SFRSYM    DATA     BIT       OISVL
      000000F9H   SFRSYM    DATA     BYTE      PI_CR
      000000F8H.5 SFRSYM    DATA     BIT       OISWL
      000000D8H   SFRSYM    DATA     BIT       PCMP30
      000000AAH   SFRSYM    DATA     WORD      TIM2__CNTR
      000000D8H.1 SFRSYM    DATA     BIT       PCMP31
      000000A2H   SFRSYM    DATA     WORD      TIM3__CNTR
      00000092H   SFRSYM    DATA     WORD      TIM4__CNTR
      00000098H   SFRSYM    DATA     BIT       RI
      00000098H.6 SFRSYM    DATA     BIT       UT_MOD0
      00000098H.7 SFRSYM    DATA     BIT       UT_MOD1
      000000D0H.7 SFRSYM    DATA     BIT       CY
      00000098H.1 SFRSYM    DATA     BIT       TI
      000000C0H.2 SFRSYM    DATA     BIT       PTIM10
      00000084H   SFRSYM    DATA     BYTE      FLA_KEY
      000000C0H   SFRSYM    DATA     BIT       PTIM20
      000000C0H.3 SFRSYM    DATA     BIT       PTIM11
      00000098H   SFRSYM    DATA     BYTE      UT_CR
      000000C8H.2 SFRSYM    DATA     BIT       PTIM30
      000000C0H.1 SFRSYM    DATA     BIT       PTIM21
      00000099H   SFRSYM    DATA     BYTE      UT_DR
      000000C8H.3 SFRSYM    DATA     BIT       PTIM31
      000000D0H.2 SFRSYM    DATA     BIT       OV
      0000009AH   SFRSYM    DATA     WORD      UT_BAUD
      000000D8H.4 SFRSYM    DATA     BIT       PSPI_UT20
      000000D8H.5 SFRSYM    DATA     BIT       PSPI_UT21
      00000087H   SFRSYM    DATA     BYTE      PCON
      00000088H   SFRSYM    DATA     BYTE      TCON
      00000082H   SFRSYM    DATA     WORD      DPTR
      00000088H.2 SFRSYM    DATA     BIT       IF0
      000000AEH   SFRSYM    DATA     WORD      TIM2__ARR
      000000A1H   SFRSYM    DATA     BYTE      TIM2_CR0
      000000A6H   SFRSYM    DATA     WORD      TIM3__ARR
      0000009CH   SFRSYM    DATA     BYTE      TIM3_CR0
      000000A9H   SFRSYM    DATA     BYTE      TIM2_CR1
      00000096H   SFRSYM    DATA     WORD      TIM4__ARR
      0000009EH   SFRSYM    DATA     BYTE      TIM4_CR0
      0000009DH   SFRSYM    DATA     BYTE      TIM3_CR1
      000000F8H   SFRSYM    DATA     BYTE      DRV_OUT
      0000009FH   SFRSYM    DATA     BYTE      TIM4_CR1
      000000E0H   SFRSYM    DATA     BYTE      ACC
      000000DBH   SFRSYM    DATA     BYTE      LVSR
      000000A8H.4 SFRSYM    DATA     BIT       ES0
      00000085H   SFRSYM    DATA     BYTE      FLA_CR
      000000C0H.4 SFRSYM    DATA     BIT       PADC0
      000000B8H   SFRSYM    DATA     BYTE      IP0
      000000C0H.5 SFRSYM    DATA     BIT       PADC1
      000000C0H   SFRSYM    DATA     BYTE      IP1
LX51 LINKER/LOCATER V4.41                                                             01/15/2025  09:25:09  PAGE 26


      000000C8H   SFRSYM    DATA     BYTE      IP2
      00000098H.2 SFRSYM    DATA     BIT       RB8
      000000D8H   SFRSYM    DATA     BYTE      IP3
      000000A8H   SFRSYM    DATA     BIT       EX0
      00000098H.3 SFRSYM    DATA     BIT       TB8
      000000A8H.2 SFRSYM    DATA     BIT       EX1
      000000D0H   SFRSYM    DATA     BIT       P
      0000008AH   SFRSYM    DATA     BYTE      UT2_CR
      00000089H   SFRSYM    DATA     BYTE      UT2_DR
      00000098H.5 SFRSYM    DATA     BIT       SM2
      000000D8H.6 SFRSYM    DATA     BIT       PDMA0
      000000D8H.7 SFRSYM    DATA     BIT       PDMA1
      000000D0H.3 SFRSYM    DATA     BIT       RS0
      000000D0H.4 SFRSYM    DATA     BIT       RS1
      000000CAH   SFRSYM    DATA     BYTE      MDU_MD
      000000C1H   SFRSYM    DATA     BYTE      MDU_CR
      000000F8H.7 SFRSYM    DATA     BIT       MOE
      000000C0H.6 SFRSYM    DATA     BIT       PCMP0
      000000C0H.7 SFRSYM    DATA     BIT       PCMP1
      00000098H.4 SFRSYM    DATA     BIT       REN
      000000D7H   SFRSYM    DATA     BYTE      CMP_SR
      000000C8H   SFRSYM    DATA     BIT       PRTC0
      000000C8H.1 SFRSYM    DATA     BIT       PRTC1
      000000C8H.6 SFRSYM    DATA     BIT       PTSD0
      000000C8H.7 SFRSYM    DATA     BIT       PTSD1
      000000B8H.6 SFRSYM    DATA     BIT       PDRV0
      000000B8H.7 SFRSYM    DATA     BIT       PDRV1
      000000D1H   SFRSYM    DATA     BYTE      P1_IE
      000000D3H   SFRSYM    DATA     BYTE      P2_IE
      000000D2H   SFRSYM    DATA     BYTE      P1_IF
      000000D4H   SFRSYM    DATA     BYTE      P2_IF
      000000ACH   SFRSYM    DATA     WORD      TIM2__DR
      000000C8H.4 SFRSYM    DATA     BIT       PTIM4S0
      000000FCH   SFRSYM    DATA     BYTE      P0_OE
      000000A4H   SFRSYM    DATA     WORD      TIM3__DR
      000000C8H.5 SFRSYM    DATA     BIT       PTIM4S1
      000000FDH   SFRSYM    DATA     BYTE      P1_OE
      00000094H   SFRSYM    DATA     WORD      TIM4__DR
      000000D0H.5 SFRSYM    DATA     BIT       F0
      000000FEH   SFRSYM    DATA     BYTE      P2_OE
      000000D0H.1 SFRSYM    DATA     BIT       F1
      000000FFH   SFRSYM    DATA     BYTE      P3_OE
      00000080H   SFRSYM    DATA     BIT       GP00
      000000E9H   SFRSYM    DATA     BYTE      P4_OE
      00000090H   SFRSYM    DATA     BIT       GP10
      00000080H.1 SFRSYM    DATA     BIT       GP01
      000000A8H.6 SFRSYM    DATA     BIT       RTCIE
      000000A0H   SFRSYM    DATA     BIT       GP20
      00000090H.1 SFRSYM    DATA     BIT       GP11
      00000080H.2 SFRSYM    DATA     BIT       GP02
      000000B0H   SFRSYM    DATA     BIT       GP30
      000000A0H.1 SFRSYM    DATA     BIT       GP21
      00000090H.2 SFRSYM    DATA     BIT       GP12
      00000080H.3 SFRSYM    DATA     BIT       GP03
      000000D8H.2 SFRSYM    DATA     BIT       PI2C_UT10
      000000B8H   SFRSYM    DATA     BIT       PLVW0
      000000A8H.1 SFRSYM    DATA     BIT       TSDIE
      000000D0H   SFRSYM    DATA     BYTE      PSW
      000000B0H.1 SFRSYM    DATA     BIT       GP31
      000000A0H.2 SFRSYM    DATA     BIT       GP22
      00000090H.3 SFRSYM    DATA     BIT       GP13
      00000080H.4 SFRSYM    DATA     BIT       GP04
      000000D8H.3 SFRSYM    DATA     BIT       PI2C_UT11
      000000B8H.1 SFRSYM    DATA     BIT       PLVW1
      000000A8H.3 SFRSYM    DATA     BIT       SPIIE
LX51 LINKER/LOCATER V4.41                                                             01/15/2025  09:25:09  PAGE 27


      00000088H.5 SFRSYM    DATA     BIT       TSDIF
      000000B0H.2 SFRSYM    DATA     BIT       GP32
      000000A0H.3 SFRSYM    DATA     BIT       GP23
      00000090H.4 SFRSYM    DATA     BIT       GP14
      00000080H.5 SFRSYM    DATA     BIT       GP05
      000000E8H.2 SFRSYM    DATA     BIT       GP42
      000000B0H.3 SFRSYM    DATA     BIT       GP33
      000000A0H.4 SFRSYM    DATA     BIT       GP24
      00000090H.5 SFRSYM    DATA     BIT       GP15
      00000080H.6 SFRSYM    DATA     BIT       GP06
      00000088H   SFRSYM    DATA     BIT       IT00

      010010DFH   BLOCK     CODE     ---       LVL=0
      010010DFH   BLOCK     CODE     NEAR LAB  LVL=1
      020001C9H   SYMBOL    XDATA    DWORD     PowerUpCnt
      ---         BLOCKEND  ---      ---       LVL=1
      010010DFH   LINE      CODE     ---       #28
      010010DFH   LINE      CODE     ---       #29
      010010DFH   LINE      CODE     ---       #30
      010010E9H   LINE      CODE     ---       #32
      0100112FH   LINE      CODE     ---       #35
      01001132H   LINE      CODE     ---       #38
      01001135H   LINE      CODE     ---       #41
      01001138H   LINE      CODE     ---       #43
      01001142H   LINE      CODE     ---       #44
      01001144H   LINE      CODE     ---       #47
      01001144H   LINE      CODE     ---       #48
      0100114CH   LINE      CODE     ---       #49
      0100114CH   LINE      CODE     ---       #50
      01001171H   LINE      CODE     ---       #51
      01001193H   LINE      CODE     ---       #52
      01001193H   LINE      CODE     ---       #55
      0100119AH   LINE      CODE     ---       #57
      010011A4H   LINE      CODE     ---       #59
      010011A4H   LINE      CODE     ---       #60
      010011A4H   LINE      CODE     ---       #62
      010011C6H   LINE      CODE     ---       #64
      010011C9H   LINE      CODE     ---       #66
      010011CCH   LINE      CODE     ---       #67
      010011CCH   LINE      CODE     ---       #69
      010011D2H   LINE      CODE     ---       #70
      010011D2H   LINE      CODE     ---       #71
      010011E0H   LINE      CODE     ---       #72
      010011E7H   LINE      CODE     ---       #73
      010011E9H   LINE      CODE     ---       #74
      010011EEH   LINE      CODE     ---       #75
      010011F0H   LINE      CODE     ---       #76
      0100121DH   LINE      CODE     ---       #77
      0100123CH   LINE      CODE     ---       #78
      0100123CH   LINE      CODE     ---       #80
      01001259H   LINE      CODE     ---       #81
      01001259H   LINE      CODE     ---       #82
      01001263H   LINE      CODE     ---       #83
      01001266H   LINE      CODE     ---       #84
      01001266H   LINE      CODE     ---       #85
      ---         BLOCKEND  ---      ---       LVL=0

      01002B62H   BLOCK     CODE     ---       LVL=0
      01002B62H   LINE      CODE     ---       #94
      01002B62H   LINE      CODE     ---       #95
      01002B62H   LINE      CODE     ---       #96
      01002B65H   LINE      CODE     ---       #98
      01002B65H   LINE      CODE     ---       #100
      01002B68H   LINE      CODE     ---       #101
      01002B68H   LINE      CODE     ---       #108
LX51 LINKER/LOCATER V4.41                                                             01/15/2025  09:25:09  PAGE 28


      01002B6BH   LINE      CODE     ---       #110
      01002B6EH   LINE      CODE     ---       #112
      01002B71H   LINE      CODE     ---       #114
      01002B74H   LINE      CODE     ---       #116
      01002B77H   LINE      CODE     ---       #118
      01002B7AH   LINE      CODE     ---       #120
      01002B7AH   LINE      CODE     ---       #122
      01002B7DH   LINE      CODE     ---       #123
      01002B7DH   LINE      CODE     ---       #131
      01002B7FH   LINE      CODE     ---       #132
      01002B81H   LINE      CODE     ---       #133
      01002B88H   LINE      CODE     ---       #134
      ---         BLOCKEND  ---      ---       LVL=0

      01000066H   BLOCK     CODE     ---       LVL=0
      01000066H   LINE      CODE     ---       #142
      01000066H   LINE      CODE     ---       #143
      01000066H   LINE      CODE     ---       #145
      01000069H   LINE      CODE     ---       #146
      0100006EH   LINE      CODE     ---       #147
      01000072H   LINE      CODE     ---       #148
      ---         BLOCKEND  ---      ---       LVL=0

      01002C7DH   BLOCK     CODE     ---       LVL=0
      01002C7DH   LINE      CODE     ---       #156
      01002C7DH   LINE      CODE     ---       #157
      01002C7DH   LINE      CODE     ---       #158
      01002C84H   LINE      CODE     ---       #159
      01002C88H   LINE      CODE     ---       #160
      01002C8CH   LINE      CODE     ---       #161
      ---         BLOCKEND  ---      ---       LVL=0

      ---         MODULE    ---      ---       FOCCONTROL
      01000F40H   PUBLIC    CODE     ---       MC_Control
      000000E8H.3 SFRSYM    DATA     BIT       GP43
      000000B0H.4 SFRSYM    DATA     BIT       GP34
      000000A0H.5 SFRSYM    DATA     BIT       GP25
      00000090H.6 SFRSYM    DATA     BIT       GP16
      00000080H.7 SFRSYM    DATA     BIT       GP07
      00000088H.1 SFRSYM    DATA     BIT       IT01
      00000088H.3 SFRSYM    DATA     BIT       IT10
      000000E8H.4 SFRSYM    DATA     BIT       GP44
      000000B0H.5 SFRSYM    DATA     BIT       GP35
      000000A0H.6 SFRSYM    DATA     BIT       GP26
      00000090H.7 SFRSYM    DATA     BIT       GP17
      00000080H   SFRSYM    DATA     BYTE      P0
      00000088H.4 SFRSYM    DATA     BIT       IT11
      000000C9H   SFRSYM    DATA     BYTE      RST_SR
      000000D9H   SFRSYM    DATA     BYTE      EVT_FILT
      000000E8H.5 SFRSYM    DATA     BIT       GP45
      000000B0H.6 SFRSYM    DATA     BIT       GP36
      000000A0H.7 SFRSYM    DATA     BIT       GP27
      00000090H   SFRSYM    DATA     BYTE      P1
      000000B0H.7 SFRSYM    DATA     BIT       GP37
      000000A0H   SFRSYM    DATA     BYTE      P2
      000000B0H   SFRSYM    DATA     BYTE      P3
      000000E8H   SFRSYM    DATA     BYTE      P4
      000000D0H.6 SFRSYM    DATA     BIT       AC
      000000A8H.7 SFRSYM    DATA     BIT       EA
      000000D5H   SFRSYM    DATA     BYTE      CMP_CR0
      000000D6H   SFRSYM    DATA     BYTE      CMP_CR1
      000000C6H   SFRSYM    DATA     WORD      MDU_A
      000000DAH   SFRSYM    DATA     BYTE      CMP_CR2
      000000C4H   SFRSYM    DATA     WORD      MDU_B
      000000B8H.2 SFRSYM    DATA     BIT       PX00
LX51 LINKER/LOCATER V4.41                                                             01/15/2025  09:25:09  PAGE 29


      000000DCH   SFRSYM    DATA     BYTE      CMP_CR3
      000000F8H   SFRSYM    DATA     BIT       OISUH
      000000C2H   SFRSYM    DATA     WORD      MDU_C
      000000B8H.3 SFRSYM    DATA     BIT       PX01
      000000B8H.4 SFRSYM    DATA     BIT       PX10
      000000E1H   SFRSYM    DATA     BYTE      CMP_CR4
      000000F8H.2 SFRSYM    DATA     BIT       OISVH
      000000CBH   SFRSYM    DATA     BYTE      MDU_D
      000000B8H.5 SFRSYM    DATA     BIT       PX11
      000000F8H.4 SFRSYM    DATA     BIT       OISWH
      000000F8H.1 SFRSYM    DATA     BIT       OISUL
      000000A8H   SFRSYM    DATA     BYTE      IE
      000000F8H.3 SFRSYM    DATA     BIT       OISVL
      000000F9H   SFRSYM    DATA     BYTE      PI_CR
      000000F8H.5 SFRSYM    DATA     BIT       OISWL
      000000D8H   SFRSYM    DATA     BIT       PCMP30
      000000AAH   SFRSYM    DATA     WORD      TIM2__CNTR
      000000D8H.1 SFRSYM    DATA     BIT       PCMP31
      000000A2H   SFRSYM    DATA     WORD      TIM3__CNTR
      00000092H   SFRSYM    DATA     WORD      TIM4__CNTR
      00000098H   SFRSYM    DATA     BIT       RI
      00000098H.6 SFRSYM    DATA     BIT       UT_MOD0
      00000098H.7 SFRSYM    DATA     BIT       UT_MOD1
      000000D0H.7 SFRSYM    DATA     BIT       CY
      00000098H.1 SFRSYM    DATA     BIT       TI
      000000C0H.2 SFRSYM    DATA     BIT       PTIM10
      00000084H   SFRSYM    DATA     BYTE      FLA_KEY
      000000C0H   SFRSYM    DATA     BIT       PTIM20
      000000C0H.3 SFRSYM    DATA     BIT       PTIM11
      00000098H   SFRSYM    DATA     BYTE      UT_CR
      000000C8H.2 SFRSYM    DATA     BIT       PTIM30
      000000C0H.1 SFRSYM    DATA     BIT       PTIM21
      00000099H   SFRSYM    DATA     BYTE      UT_DR
      000000C8H.3 SFRSYM    DATA     BIT       PTIM31
      000000D0H.2 SFRSYM    DATA     BIT       OV
      0000009AH   SFRSYM    DATA     WORD      UT_BAUD
      000000D8H.4 SFRSYM    DATA     BIT       PSPI_UT20
      000000D8H.5 SFRSYM    DATA     BIT       PSPI_UT21
      00000087H   SFRSYM    DATA     BYTE      PCON
      00000088H   SFRSYM    DATA     BYTE      TCON
      00000082H   SFRSYM    DATA     WORD      DPTR
      00000088H.2 SFRSYM    DATA     BIT       IF0
      000000AEH   SFRSYM    DATA     WORD      TIM2__ARR
      000000A1H   SFRSYM    DATA     BYTE      TIM2_CR0
      000000A6H   SFRSYM    DATA     WORD      TIM3__ARR
      0000009CH   SFRSYM    DATA     BYTE      TIM3_CR0
      000000A9H   SFRSYM    DATA     BYTE      TIM2_CR1
      00000096H   SFRSYM    DATA     WORD      TIM4__ARR
      0000009EH   SFRSYM    DATA     BYTE      TIM4_CR0
      0000009DH   SFRSYM    DATA     BYTE      TIM3_CR1
      000000F8H   SFRSYM    DATA     BYTE      DRV_OUT
      0000009FH   SFRSYM    DATA     BYTE      TIM4_CR1
      000000E0H   SFRSYM    DATA     BYTE      ACC
      000000DBH   SFRSYM    DATA     BYTE      LVSR
      000000A8H.4 SFRSYM    DATA     BIT       ES0
      00000085H   SFRSYM    DATA     BYTE      FLA_CR
      000000C0H.4 SFRSYM    DATA     BIT       PADC0
      000000B8H   SFRSYM    DATA     BYTE      IP0
      000000C0H.5 SFRSYM    DATA     BIT       PADC1
      000000C0H   SFRSYM    DATA     BYTE      IP1
      000000C8H   SFRSYM    DATA     BYTE      IP2
      00000098H.2 SFRSYM    DATA     BIT       RB8
      000000D8H   SFRSYM    DATA     BYTE      IP3
      000000A8H   SFRSYM    DATA     BIT       EX0
      00000098H.3 SFRSYM    DATA     BIT       TB8
LX51 LINKER/LOCATER V4.41                                                             01/15/2025  09:25:09  PAGE 30


      000000A8H.2 SFRSYM    DATA     BIT       EX1
      000000D0H   SFRSYM    DATA     BIT       P
      0000008AH   SFRSYM    DATA     BYTE      UT2_CR
      00000089H   SFRSYM    DATA     BYTE      UT2_DR
      00000098H.5 SFRSYM    DATA     BIT       SM2
      000000D8H.6 SFRSYM    DATA     BIT       PDMA0
      000000D8H.7 SFRSYM    DATA     BIT       PDMA1
      000000D0H.3 SFRSYM    DATA     BIT       RS0
      000000D0H.4 SFRSYM    DATA     BIT       RS1
      000000CAH   SFRSYM    DATA     BYTE      MDU_MD
      000000C1H   SFRSYM    DATA     BYTE      MDU_CR
      000000F8H.7 SFRSYM    DATA     BIT       MOE
      000000C0H.6 SFRSYM    DATA     BIT       PCMP0
      000000C0H.7 SFRSYM    DATA     BIT       PCMP1
      00000098H.4 SFRSYM    DATA     BIT       REN
      000000D7H   SFRSYM    DATA     BYTE      CMP_SR
      000000C8H   SFRSYM    DATA     BIT       PRTC0
      000000C8H.1 SFRSYM    DATA     BIT       PRTC1
      000000C8H.6 SFRSYM    DATA     BIT       PTSD0
      000000C8H.7 SFRSYM    DATA     BIT       PTSD1
      000000B8H.6 SFRSYM    DATA     BIT       PDRV0
      000000B8H.7 SFRSYM    DATA     BIT       PDRV1
      000000D1H   SFRSYM    DATA     BYTE      P1_IE
      000000D3H   SFRSYM    DATA     BYTE      P2_IE
      000000D2H   SFRSYM    DATA     BYTE      P1_IF
      000000D4H   SFRSYM    DATA     BYTE      P2_IF
      000000ACH   SFRSYM    DATA     WORD      TIM2__DR
      000000C8H.4 SFRSYM    DATA     BIT       PTIM4S0
      000000FCH   SFRSYM    DATA     BYTE      P0_OE
      000000A4H   SFRSYM    DATA     WORD      TIM3__DR
      000000C8H.5 SFRSYM    DATA     BIT       PTIM4S1
      000000FDH   SFRSYM    DATA     BYTE      P1_OE
      00000094H   SFRSYM    DATA     WORD      TIM4__DR
      000000D0H.5 SFRSYM    DATA     BIT       F0
      000000FEH   SFRSYM    DATA     BYTE      P2_OE
      000000D0H.1 SFRSYM    DATA     BIT       F1
      000000FFH   SFRSYM    DATA     BYTE      P3_OE
      00000080H   SFRSYM    DATA     BIT       GP00
      000000E9H   SFRSYM    DATA     BYTE      P4_OE
      00000090H   SFRSYM    DATA     BIT       GP10
      00000080H.1 SFRSYM    DATA     BIT       GP01
      000000A8H.6 SFRSYM    DATA     BIT       RTCIE
      000000A0H   SFRSYM    DATA     BIT       GP20
      00000090H.1 SFRSYM    DATA     BIT       GP11
      00000080H.2 SFRSYM    DATA     BIT       GP02
      000000B0H   SFRSYM    DATA     BIT       GP30
      000000A0H.1 SFRSYM    DATA     BIT       GP21
      00000090H.2 SFRSYM    DATA     BIT       GP12
      00000080H.3 SFRSYM    DATA     BIT       GP03
      000000D8H.2 SFRSYM    DATA     BIT       PI2C_UT10
      000000B8H   SFRSYM    DATA     BIT       PLVW0
      000000A8H.1 SFRSYM    DATA     BIT       TSDIE
      000000D0H   SFRSYM    DATA     BYTE      PSW
      000000B0H.1 SFRSYM    DATA     BIT       GP31
      000000A0H.2 SFRSYM    DATA     BIT       GP22
      00000090H.3 SFRSYM    DATA     BIT       GP13
      00000080H.4 SFRSYM    DATA     BIT       GP04
      000000D8H.3 SFRSYM    DATA     BIT       PI2C_UT11
      000000B8H.1 SFRSYM    DATA     BIT       PLVW1
      000000A8H.3 SFRSYM    DATA     BIT       SPIIE
      00000088H.5 SFRSYM    DATA     BIT       TSDIF
      000000B0H.2 SFRSYM    DATA     BIT       GP32
      000000A0H.3 SFRSYM    DATA     BIT       GP23
      00000090H.4 SFRSYM    DATA     BIT       GP14
      00000080H.5 SFRSYM    DATA     BIT       GP05
LX51 LINKER/LOCATER V4.41                                                             01/15/2025  09:25:09  PAGE 31


      000000E8H.2 SFRSYM    DATA     BIT       GP42
      000000B0H.3 SFRSYM    DATA     BIT       GP33
      000000A0H.4 SFRSYM    DATA     BIT       GP24
      00000090H.5 SFRSYM    DATA     BIT       GP15
      00000080H.6 SFRSYM    DATA     BIT       GP06
      00000088H   SFRSYM    DATA     BIT       IT00

      01000F40H   BLOCK     CODE     ---       LVL=0
      01000F40H   LINE      CODE     ---       #17
      01000F40H   LINE      CODE     ---       #18
      01000F40H   LINE      CODE     ---       #19
      01000F77H   LINE      CODE     ---       #20
      01000F77H   LINE      CODE     ---       #21
      01000F77H   LINE      CODE     ---       #22
      01000F7DH   LINE      CODE     ---       #23
      01000F7DH   LINE      CODE     ---       #24
      01000F7DH   LINE      CODE     ---       #25
      01000F80H   LINE      CODE     ---       #27
      01000F80H   LINE      CODE     ---       #29
      01000F83H   LINE      CODE     ---       #31
      01000FABH   LINE      CODE     ---       #32
      01000FABH   LINE      CODE     ---       #33
      01000FB1H   LINE      CODE     ---       #34
      01000FB6H   LINE      CODE     ---       #35
      01000FBCH   LINE      CODE     ---       #36
      01000FBCH   LINE      CODE     ---       #37
      01000FBCH   LINE      CODE     ---       #39
      01000FBDH   LINE      CODE     ---       #41
      01000FBDH   LINE      CODE     ---       #42
      01000FC3H   LINE      CODE     ---       #43
      01000FC3H   LINE      CODE     ---       #44
      01000FC3H   LINE      CODE     ---       #45
      01000FC6H   LINE      CODE     ---       #46
      01000FCCH   LINE      CODE     ---       #47
      01000FCCH   LINE      CODE     ---       #48
      01000FCCH   LINE      CODE     ---       #49
      01000FCFH   LINE      CODE     ---       #51
      01000FCFH   LINE      CODE     ---       #52
      01000FDAH   LINE      CODE     ---       #53
      01000FDAH   LINE      CODE     ---       #55
      01000FDDH   LINE      CODE     ---       #62
      01000FDDH   LINE      CODE     ---       #63
      01000FE3H   LINE      CODE     ---       #64
      01000FE3H   LINE      CODE     ---       #66
      01000FE3H   LINE      CODE     ---       #67
      01000FE3H   LINE      CODE     ---       #69
      01000FE4H   LINE      CODE     ---       #71
      01000FE4H   LINE      CODE     ---       #72
      01000FEAH   LINE      CODE     ---       #73
      01000FEAH   LINE      CODE     ---       #74
      01000FEAH   LINE      CODE     ---       #75
      01000FEDH   LINE      CODE     ---       #76
      01000FF3H   LINE      CODE     ---       #77
      01000FF3H   LINE      CODE     ---       #78
      01000FF3H   LINE      CODE     ---       #79
      01000FF6H   LINE      CODE     ---       #81
      01000FF6H   LINE      CODE     ---       #82
      01000FF9H   LINE      CODE     ---       #83
      01000FF9H   LINE      CODE     ---       #85
      01000FF9H   LINE      CODE     ---       #87
      01000FF9H   LINE      CODE     ---       #88
      01000FFFH   LINE      CODE     ---       #89
      01000FFFH   LINE      CODE     ---       #90
      01000FFFH   LINE      CODE     ---       #91
      01001002H   LINE      CODE     ---       #92
LX51 LINKER/LOCATER V4.41                                                             01/15/2025  09:25:09  PAGE 32


      01001008H   LINE      CODE     ---       #93
      01001008H   LINE      CODE     ---       #94
      01001008H   LINE      CODE     ---       #95
      0100100AH   LINE      CODE     ---       #97
      0100100AH   LINE      CODE     ---       #105
      0100100AH   LINE      CODE     ---       #107
      0100100DH   LINE      CODE     ---       #108
      01001015H   LINE      CODE     ---       #109
      01001015H   LINE      CODE     ---       #110
      0100101BH   LINE      CODE     ---       #111
      01001024H   LINE      CODE     ---       #112
      01001025H   LINE      CODE     ---       #113
      0100102DH   LINE      CODE     ---       #114
      0100102DH   LINE      CODE     ---       #115
      01001033H   LINE      CODE     ---       #116
      01001033H   LINE      CODE     ---       #117
      01001033H   LINE      CODE     ---       #119
      01001033H   LINE      CODE     ---       #121
      01001034H   LINE      CODE     ---       #123
      01001034H   LINE      CODE     ---       #124
      0100103AH   LINE      CODE     ---       #125
      0100103AH   LINE      CODE     ---       #126
      0100103AH   LINE      CODE     ---       #127
      0100103CH   LINE      CODE     ---       #128
      01001042H   LINE      CODE     ---       #129
      01001042H   LINE      CODE     ---       #130
      01001042H   LINE      CODE     ---       #131
      01001044H   LINE      CODE     ---       #133
      01001044H   LINE      CODE     ---       #135
      01001047H   LINE      CODE     ---       #141
      01001047H   LINE      CODE     ---       #142
      01001054H   LINE      CODE     ---       #143
      01001054H   LINE      CODE     ---       #144
      0100105AH   LINE      CODE     ---       #145
      0100105AH   LINE      CODE     ---       #146
      0100105AH   LINE      CODE     ---       #148
      0100105AH   LINE      CODE     ---       #150
      0100105BH   LINE      CODE     ---       #152
      0100105BH   LINE      CODE     ---       #153
      01001061H   LINE      CODE     ---       #154
      01001061H   LINE      CODE     ---       #155
      01001061H   LINE      CODE     ---       #156
      01001063H   LINE      CODE     ---       #157
      01001069H   LINE      CODE     ---       #158
      01001069H   LINE      CODE     ---       #159
      01001069H   LINE      CODE     ---       #160
      0100106BH   LINE      CODE     ---       #162
      0100106BH   LINE      CODE     ---       #164
      0100106EH   LINE      CODE     ---       #165
      0100106EH   LINE      CODE     ---       #167
      0100106EH   LINE      CODE     ---       #169
      0100106EH   LINE      CODE     ---       #170
      01001074H   LINE      CODE     ---       #171
      01001074H   LINE      CODE     ---       #172
      01001074H   LINE      CODE     ---       #173
      01001076H   LINE      CODE     ---       #175
      01001076H   LINE      CODE     ---       #176
      01001086H   LINE      CODE     ---       #177
      01001086H   LINE      CODE     ---       #178
      0100108CH   LINE      CODE     ---       #179
      0100108CH   LINE      CODE     ---       #180
      0100108CH   LINE      CODE     ---       #182
      0100108DH   LINE      CODE     ---       #184
      0100108DH   LINE      CODE     ---       #185
      01001093H   LINE      CODE     ---       #186
LX51 LINKER/LOCATER V4.41                                                             01/15/2025  09:25:09  PAGE 33


      01001093H   LINE      CODE     ---       #187
      01001093H   LINE      CODE     ---       #188
      01001095H   LINE      CODE     ---       #190
      01001095H   LINE      CODE     ---       #192
      01001095H   LINE      CODE     ---       #193
      0100109AH   LINE      CODE     ---       #194
      0100109EH   LINE      CODE     ---       #195
      010010A5H   LINE      CODE     ---       #196
      010010A9H   LINE      CODE     ---       #197
      010010ABH   LINE      CODE     ---       #198
      010010ABH   LINE      CODE     ---       #216
      010010ABH   LINE      CODE     ---       #218
      010010ACH   LINE      CODE     ---       #220
      010010ACH   LINE      CODE     ---       #221
      010010B2H   LINE      CODE     ---       #222
      010010B2H   LINE      CODE     ---       #223
      010010B8H   LINE      CODE     ---       #224
      010010B9H   LINE      CODE     ---       #226
      010010B9H   LINE      CODE     ---       #227
      010010C3H   LINE      CODE     ---       #228
      010010C3H   LINE      CODE     ---       #229
      010010C7H   LINE      CODE     ---       #230
      010010C9H   LINE      CODE     ---       #231
      010010D0H   LINE      CODE     ---       #232
      010010D0H   LINE      CODE     ---       #233
      010010D0H   LINE      CODE     ---       #235
      010010D1H   LINE      CODE     ---       #237
      010010D1H   LINE      CODE     ---       #238
      010010D4H   LINE      CODE     ---       #240
      010010DAH   LINE      CODE     ---       #241
      010010DAH   LINE      CODE     ---       #242
      010010DEH   LINE      CODE     ---       #243
      010010DEH   LINE      CODE     ---       #245
      010010DEH   LINE      CODE     ---       #247
      010010DEH   LINE      CODE     ---       #248
      010010DEH   LINE      CODE     ---       #249
      010010DEH   LINE      CODE     ---       #250
      ---         BLOCKEND  ---      ---       LVL=0

      ---         MODULE    ---      ---       FOCCONTROLFUNCTION
      020001E7H   PUBLIC    XDATA    CHAR      Step_count
      01002C64H   PUBLIC    CODE     ---       Motor_Init
      01002B37H   PUBLIC    CODE     ---       Motor_Ready
      01001DF9H   PUBLIC    CODE     ---       GetCurrentOffset
      010028A1H   PUBLIC    CODE     ---       VariablesPreInit
      01001D2DH   PUBLIC    CODE     ---       MotorcontrolInit
      01001B8AH   PUBLIC    CODE     ---       Motor_Charge
      01001F83H   PUBLIC    CODE     ---       Motor_Open
      01002BF4H   PUBLIC    CODE     ---       Motor_TailWind
      010024B0H   PUBLIC    CODE     ---       Motor_Align
      01001671H   PUBLIC    CODE     ---       FOC_Init
      000000E8H.3 SFRSYM    DATA     BIT       GP43
      000000B0H.4 SFRSYM    DATA     BIT       GP34
      000000A0H.5 SFRSYM    DATA     BIT       GP25
      00000090H.6 SFRSYM    DATA     BIT       GP16
      00000080H.7 SFRSYM    DATA     BIT       GP07
      00000088H.1 SFRSYM    DATA     BIT       IT01
      00000088H.3 SFRSYM    DATA     BIT       IT10
      000000E8H.4 SFRSYM    DATA     BIT       GP44
      000000B0H.5 SFRSYM    DATA     BIT       GP35
      000000A0H.6 SFRSYM    DATA     BIT       GP26
      00000090H.7 SFRSYM    DATA     BIT       GP17
      00000080H   SFRSYM    DATA     BYTE      P0
      00000088H.4 SFRSYM    DATA     BIT       IT11
      000000C9H   SFRSYM    DATA     BYTE      RST_SR
LX51 LINKER/LOCATER V4.41                                                             01/15/2025  09:25:09  PAGE 34


      000000D9H   SFRSYM    DATA     BYTE      EVT_FILT
      000000E8H.5 SFRSYM    DATA     BIT       GP45
      000000B0H.6 SFRSYM    DATA     BIT       GP36
      000000A0H.7 SFRSYM    DATA     BIT       GP27
      00000090H   SFRSYM    DATA     BYTE      P1
      000000B0H.7 SFRSYM    DATA     BIT       GP37
      000000A0H   SFRSYM    DATA     BYTE      P2
      000000B0H   SFRSYM    DATA     BYTE      P3
      000000E8H   SFRSYM    DATA     BYTE      P4
      000000D0H.6 SFRSYM    DATA     BIT       AC
      000000A8H.7 SFRSYM    DATA     BIT       EA
      000000D5H   SFRSYM    DATA     BYTE      CMP_CR0
      000000D6H   SFRSYM    DATA     BYTE      CMP_CR1
      000000C6H   SFRSYM    DATA     WORD      MDU_A
      000000DAH   SFRSYM    DATA     BYTE      CMP_CR2
      000000C4H   SFRSYM    DATA     WORD      MDU_B
      000000B8H.2 SFRSYM    DATA     BIT       PX00
      000000DCH   SFRSYM    DATA     BYTE      CMP_CR3
      000000F8H   SFRSYM    DATA     BIT       OISUH
      000000C2H   SFRSYM    DATA     WORD      MDU_C
      000000B8H.3 SFRSYM    DATA     BIT       PX01
      000000B8H.4 SFRSYM    DATA     BIT       PX10
      000000E1H   SFRSYM    DATA     BYTE      CMP_CR4
      000000F8H.2 SFRSYM    DATA     BIT       OISVH
      000000CBH   SFRSYM    DATA     BYTE      MDU_D
      000000B8H.5 SFRSYM    DATA     BIT       PX11
      000000F8H.4 SFRSYM    DATA     BIT       OISWH
      000000F8H.1 SFRSYM    DATA     BIT       OISUL
      000000A8H   SFRSYM    DATA     BYTE      IE
      000000F8H.3 SFRSYM    DATA     BIT       OISVL
      000000F9H   SFRSYM    DATA     BYTE      PI_CR
      000000F8H.5 SFRSYM    DATA     BIT       OISWL
      000000D8H   SFRSYM    DATA     BIT       PCMP30
      000000AAH   SFRSYM    DATA     WORD      TIM2__CNTR
      000000D8H.1 SFRSYM    DATA     BIT       PCMP31
      000000A2H   SFRSYM    DATA     WORD      TIM3__CNTR
      00000092H   SFRSYM    DATA     WORD      TIM4__CNTR
      00000098H   SFRSYM    DATA     BIT       RI
      00000098H.6 SFRSYM    DATA     BIT       UT_MOD0
      00000098H.7 SFRSYM    DATA     BIT       UT_MOD1
      000000D0H.7 SFRSYM    DATA     BIT       CY
      00000098H.1 SFRSYM    DATA     BIT       TI
      000000C0H.2 SFRSYM    DATA     BIT       PTIM10
      00000084H   SFRSYM    DATA     BYTE      FLA_KEY
      000000C0H   SFRSYM    DATA     BIT       PTIM20
      000000C0H.3 SFRSYM    DATA     BIT       PTIM11
      00000098H   SFRSYM    DATA     BYTE      UT_CR
      000000C8H.2 SFRSYM    DATA     BIT       PTIM30
      000000C0H.1 SFRSYM    DATA     BIT       PTIM21
      00000099H   SFRSYM    DATA     BYTE      UT_DR
      000000C8H.3 SFRSYM    DATA     BIT       PTIM31
      000000D0H.2 SFRSYM    DATA     BIT       OV
      0000009AH   SFRSYM    DATA     WORD      UT_BAUD
      000000D8H.4 SFRSYM    DATA     BIT       PSPI_UT20
      000000D8H.5 SFRSYM    DATA     BIT       PSPI_UT21
      00000087H   SFRSYM    DATA     BYTE      PCON
      00000088H   SFRSYM    DATA     BYTE      TCON
      00000082H   SFRSYM    DATA     WORD      DPTR
      00000088H.2 SFRSYM    DATA     BIT       IF0
      000000AEH   SFRSYM    DATA     WORD      TIM2__ARR
      000000A1H   SFRSYM    DATA     BYTE      TIM2_CR0
      000000A6H   SFRSYM    DATA     WORD      TIM3__ARR
      0000009CH   SFRSYM    DATA     BYTE      TIM3_CR0
      000000A9H   SFRSYM    DATA     BYTE      TIM2_CR1
      00000096H   SFRSYM    DATA     WORD      TIM4__ARR
LX51 LINKER/LOCATER V4.41                                                             01/15/2025  09:25:09  PAGE 35


      0000009EH   SFRSYM    DATA     BYTE      TIM4_CR0
      0000009DH   SFRSYM    DATA     BYTE      TIM3_CR1
      000000F8H   SFRSYM    DATA     BYTE      DRV_OUT
      0000009FH   SFRSYM    DATA     BYTE      TIM4_CR1
      000000E0H   SFRSYM    DATA     BYTE      ACC
      000000DBH   SFRSYM    DATA     BYTE      LVSR
      000000A8H.4 SFRSYM    DATA     BIT       ES0
      00000085H   SFRSYM    DATA     BYTE      FLA_CR
      000000C0H.4 SFRSYM    DATA     BIT       PADC0
      000000B8H   SFRSYM    DATA     BYTE      IP0
      000000C0H.5 SFRSYM    DATA     BIT       PADC1
      000000C0H   SFRSYM    DATA     BYTE      IP1
      000000C8H   SFRSYM    DATA     BYTE      IP2
      00000098H.2 SFRSYM    DATA     BIT       RB8
      000000D8H   SFRSYM    DATA     BYTE      IP3
      000000A8H   SFRSYM    DATA     BIT       EX0
      00000098H.3 SFRSYM    DATA     BIT       TB8
      000000A8H.2 SFRSYM    DATA     BIT       EX1
      000000D0H   SFRSYM    DATA     BIT       P
      0000008AH   SFRSYM    DATA     BYTE      UT2_CR
      00000089H   SFRSYM    DATA     BYTE      UT2_DR
      00000098H.5 SFRSYM    DATA     BIT       SM2
      000000D8H.6 SFRSYM    DATA     BIT       PDMA0
      000000D8H.7 SFRSYM    DATA     BIT       PDMA1
      000000D0H.3 SFRSYM    DATA     BIT       RS0
      000000D0H.4 SFRSYM    DATA     BIT       RS1
      000000CAH   SFRSYM    DATA     BYTE      MDU_MD
      000000C1H   SFRSYM    DATA     BYTE      MDU_CR
      000000F8H.7 SFRSYM    DATA     BIT       MOE
      000000C0H.6 SFRSYM    DATA     BIT       PCMP0
      000000C0H.7 SFRSYM    DATA     BIT       PCMP1
      00000098H.4 SFRSYM    DATA     BIT       REN
      000000D7H   SFRSYM    DATA     BYTE      CMP_SR
      000000C8H   SFRSYM    DATA     BIT       PRTC0
      000000C8H.1 SFRSYM    DATA     BIT       PRTC1
      000000C8H.6 SFRSYM    DATA     BIT       PTSD0
      000000C8H.7 SFRSYM    DATA     BIT       PTSD1
      000000B8H.6 SFRSYM    DATA     BIT       PDRV0
      000000B8H.7 SFRSYM    DATA     BIT       PDRV1
      000000D1H   SFRSYM    DATA     BYTE      P1_IE
      000000D3H   SFRSYM    DATA     BYTE      P2_IE
      000000D2H   SFRSYM    DATA     BYTE      P1_IF
      000000D4H   SFRSYM    DATA     BYTE      P2_IF
      000000ACH   SFRSYM    DATA     WORD      TIM2__DR
      000000C8H.4 SFRSYM    DATA     BIT       PTIM4S0
      000000FCH   SFRSYM    DATA     BYTE      P0_OE
      000000A4H   SFRSYM    DATA     WORD      TIM3__DR
      000000C8H.5 SFRSYM    DATA     BIT       PTIM4S1
      000000FDH   SFRSYM    DATA     BYTE      P1_OE
      00000094H   SFRSYM    DATA     WORD      TIM4__DR
      000000D0H.5 SFRSYM    DATA     BIT       F0
      000000FEH   SFRSYM    DATA     BYTE      P2_OE
      000000D0H.1 SFRSYM    DATA     BIT       F1
      000000FFH   SFRSYM    DATA     BYTE      P3_OE
      00000080H   SFRSYM    DATA     BIT       GP00
      000000E9H   SFRSYM    DATA     BYTE      P4_OE
      00000090H   SFRSYM    DATA     BIT       GP10
      00000080H.1 SFRSYM    DATA     BIT       GP01
      000000A8H.6 SFRSYM    DATA     BIT       RTCIE
      000000A0H   SFRSYM    DATA     BIT       GP20
      00000090H.1 SFRSYM    DATA     BIT       GP11
      00000080H.2 SFRSYM    DATA     BIT       GP02
      000000B0H   SFRSYM    DATA     BIT       GP30
      000000A0H.1 SFRSYM    DATA     BIT       GP21
      00000090H.2 SFRSYM    DATA     BIT       GP12
LX51 LINKER/LOCATER V4.41                                                             01/15/2025  09:25:09  PAGE 36


      00000080H.3 SFRSYM    DATA     BIT       GP03
      000000D8H.2 SFRSYM    DATA     BIT       PI2C_UT10
      000000B8H   SFRSYM    DATA     BIT       PLVW0
      000000A8H.1 SFRSYM    DATA     BIT       TSDIE
      000000D0H   SFRSYM    DATA     BYTE      PSW
      000000B0H.1 SFRSYM    DATA     BIT       GP31
      000000A0H.2 SFRSYM    DATA     BIT       GP22
      00000090H.3 SFRSYM    DATA     BIT       GP13
      00000080H.4 SFRSYM    DATA     BIT       GP04
      000000D8H.3 SFRSYM    DATA     BIT       PI2C_UT11
      000000B8H.1 SFRSYM    DATA     BIT       PLVW1
      000000A8H.3 SFRSYM    DATA     BIT       SPIIE
      00000088H.5 SFRSYM    DATA     BIT       TSDIF
      000000B0H.2 SFRSYM    DATA     BIT       GP32
      000000A0H.3 SFRSYM    DATA     BIT       GP23
      00000090H.4 SFRSYM    DATA     BIT       GP14
      00000080H.5 SFRSYM    DATA     BIT       GP05
      000000E8H.2 SFRSYM    DATA     BIT       GP42
      000000B0H.3 SFRSYM    DATA     BIT       GP33
      000000A0H.4 SFRSYM    DATA     BIT       GP24
      00000090H.5 SFRSYM    DATA     BIT       GP15
      00000080H.6 SFRSYM    DATA     BIT       GP06
      00000088H   SFRSYM    DATA     BIT       IT00

      01001671H   BLOCK     CODE     ---       LVL=0
      01001671H   LINE      CODE     ---       #19
      01001671H   LINE      CODE     ---       #20
      01001671H   LINE      CODE     ---       #22
      01001678H   LINE      CODE     ---       #23
      0100167CH   LINE      CODE     ---       #24
      01001680H   LINE      CODE     ---       #25
      01001687H   LINE      CODE     ---       #27
      01001687H   LINE      CODE     ---       #28
      0100168BH   LINE      CODE     ---       #29
      0100168BH   LINE      CODE     ---       #35
      0100168FH   LINE      CODE     ---       #36
      01001693H   LINE      CODE     ---       #37
      01001699H   LINE      CODE     ---       #38
      0100169EH   LINE      CODE     ---       #39
      010016A0H   LINE      CODE     ---       #40
      010016A6H   LINE      CODE     ---       #41
      010016AAH   LINE      CODE     ---       #42
      010016B0H   LINE      CODE     ---       #43
      010016B6H   LINE      CODE     ---       #44
      010016BCH   LINE      CODE     ---       #45
      010016C0H   LINE      CODE     ---       #46
      010016C6H   LINE      CODE     ---       #47
      010016CCH   LINE      CODE     ---       #49
      010016D6H   LINE      CODE     ---       #50
      010016DEH   LINE      CODE     ---       #51
      010016E6H   LINE      CODE     ---       #52
      010016EEH   LINE      CODE     ---       #54
      010016F8H   LINE      CODE     ---       #55
      01001700H   LINE      CODE     ---       #56
      0100170AH   LINE      CODE     ---       #57
      0100170FH   LINE      CODE     ---       #58
      01001719H   LINE      CODE     ---       #59
      01001722H   LINE      CODE     ---       #60
      0100172CH   LINE      CODE     ---       #61
      01001731H   LINE      CODE     ---       #64
      01001731H   LINE      CODE     ---       #65
      01001738H   LINE      CODE     ---       #66
      01001742H   LINE      CODE     ---       #67
      0100174AH   LINE      CODE     ---       #68
      0100174AH   LINE      CODE     ---       #76
LX51 LINKER/LOCATER V4.41                                                             01/15/2025  09:25:09  PAGE 37


      01001751H   LINE      CODE     ---       #78
      01001751H   LINE      CODE     ---       #79
      01001758H   LINE      CODE     ---       #80
      01001758H   LINE      CODE     ---       #88
      01001758H   LINE      CODE     ---       #89
      0100175FH   LINE      CODE     ---       #90
      0100175FH   LINE      CODE     ---       #94
      0100175FH   LINE      CODE     ---       #95
      01001763H   LINE      CODE     ---       #96
      01001769H   LINE      CODE     ---       #97
      0100176FH   LINE      CODE     ---       #99
      01001776H   LINE      CODE     ---       #100
      01001779H   LINE      CODE     ---       #101
      01001779H   LINE      CODE     ---       #163
      01001779H   LINE      CODE     ---       #164
      01001780H   LINE      CODE     ---       #165
      01001780H   LINE      CODE     ---       #167
      01001780H   LINE      CODE     ---       #169
      01001787H   LINE      CODE     ---       #170
      01001796H   LINE      CODE     ---       #171
      01001796H   LINE      CODE     ---       #194
      01001796H   LINE      CODE     ---       #195
      01001796H   LINE      CODE     ---       #203
      0100179DH   LINE      CODE     ---       #204
      010017A1H   LINE      CODE     ---       #205
      ---         BLOCKEND  ---      ---       LVL=0

      010024B0H   BLOCK     CODE     ---       LVL=0
      010024B0H   LINE      CODE     ---       #212
      010024B0H   LINE      CODE     ---       #213
      010024B0H   LINE      CODE     ---       #214
      010024BCH   LINE      CODE     ---       #215
      010024BCH   LINE      CODE     ---       #216
      010024C0H   LINE      CODE     ---       #217
      010024C7H   LINE      CODE     ---       #218
      010024C9H   LINE      CODE     ---       #220
      010024CCH   LINE      CODE     ---       #222
      010024D6H   LINE      CODE     ---       #223
      010024DBH   LINE      CODE     ---       #224
      010024E3H   LINE      CODE     ---       #225
      010024EBH   LINE      CODE     ---       #226
      010024F5H   LINE      CODE     ---       #227
      010024FAH   LINE      CODE     ---       #232
      01002500H   LINE      CODE     ---       #236
      01002512H   LINE      CODE     ---       #241
      01002528H   LINE      CODE     ---       #242
      0100252AH   LINE      CODE     ---       #243
      0100252AH   LINE      CODE     ---       #244
      ---         BLOCKEND  ---      ---       LVL=0

      01002BF4H   BLOCK     CODE     ---       LVL=0
      01002BF4H   LINE      CODE     ---       #251
      01002BF4H   LINE      CODE     ---       #252
      01002BF4H   LINE      CODE     ---       #253
      01002BFEH   LINE      CODE     ---       #254
      01002BFEH   LINE      CODE     ---       #255
      01002C0BH   LINE      CODE     ---       #256
      01002C0BH   LINE      CODE     ---       #257
      01002C0FH   LINE      CODE     ---       #259
      01002C12H   LINE      CODE     ---       #260
      01002C12H   LINE      CODE     ---       #263
      01002C15H   LINE      CODE     ---       #264
      01002C15H   LINE      CODE     ---       #265
      ---         BLOCKEND  ---      ---       LVL=0

LX51 LINKER/LOCATER V4.41                                                             01/15/2025  09:25:09  PAGE 38


      01001F83H   BLOCK     CODE     ---       LVL=0
      01001F83H   LINE      CODE     ---       #273
      01001F83H   LINE      CODE     ---       #274
      01001F83H   LINE      CODE     ---       #275
      01001F90H   LINE      CODE     ---       #276
      01001F90H   LINE      CODE     ---       #277
      01001F92H   LINE      CODE     ---       #278
      01001F99H   LINE      CODE     ---       #279
      01001FAFH   LINE      CODE     ---       #280
      01001FB1H   LINE      CODE     ---       #281
      01001FB8H   LINE      CODE     ---       #282
      01001FBBH   LINE      CODE     ---       #283
      01001FC2H   LINE      CODE     ---       #284
      01001FC6H   LINE      CODE     ---       #285
      01001FCDH   LINE      CODE     ---       #286
      01001FD3H   LINE      CODE     ---       #287
      01001FDDH   LINE      CODE     ---       #288
      01001FE6H   LINE      CODE     ---       #289
      01001FEDH   LINE      CODE     ---       #290
      01001FF7H   LINE      CODE     ---       #291
      01001FFCH   LINE      CODE     ---       #293
      01001FFCH   LINE      CODE     ---       #294
      01002004H   LINE      CODE     ---       #295
      0100200BH   LINE      CODE     ---       #296
      01002013H   LINE      CODE     ---       #297
      0100201CH   LINE      CODE     ---       #298
      0100201CH   LINE      CODE     ---       #317
      0100201CH   LINE      CODE     ---       #347
      0100201CH   LINE      CODE     ---       #350
      0100201CH   LINE      CODE     ---       #351
      01002026H   LINE      CODE     ---       #352
      01002026H   LINE      CODE     ---       #360
      0100202CH   LINE      CODE     ---       #361
      0100202CH   LINE      CODE     ---       #370
      0100203BH   LINE      CODE     ---       #371
      01002041H   LINE      CODE     ---       #372
      ---         BLOCKEND  ---      ---       LVL=0

      01001B8AH   BLOCK     CODE     ---       LVL=0
      01001B8AH   LINE      CODE     ---       #374
      01001B8AH   LINE      CODE     ---       #375
      01001B8AH   LINE      CODE     ---       #376
      01001B94H   LINE      CODE     ---       #377
      01001B94H   LINE      CODE     ---       #378
      01001B98H   LINE      CODE     ---       #379
      01001BBAH   LINE      CODE     ---       #385
      01001BC1H   LINE      CODE     ---       #386
      01001BD7H   LINE      CODE     ---       #387
      01001BD7H   LINE      CODE     ---       #389
      01001BEDH   LINE      CODE     ---       #390
      01001BEDH   LINE      CODE     ---       #391
      01001BEFH   LINE      CODE     ---       #392
      01001C05H   LINE      CODE     ---       #393
      01001C07H   LINE      CODE     ---       #394
      01001C07H   LINE      CODE     ---       #396
      01001C17H   LINE      CODE     ---       #397
      01001C17H   LINE      CODE     ---       #398
      01001C1AH   LINE      CODE     ---       #399
      01001C30H   LINE      CODE     ---       #401
      01001C30H   LINE      CODE     ---       #403
      01001C46H   LINE      CODE     ---       #404
      01001C46H   LINE      CODE     ---       #405
      01001C49H   LINE      CODE     ---       #406
      01001C5FH   LINE      CODE     ---       #408
      01001C5FH   LINE      CODE     ---       #409
LX51 LINKER/LOCATER V4.41                                                             01/15/2025  09:25:09  PAGE 39


      ---         BLOCKEND  ---      ---       LVL=0

      01001D2DH   BLOCK     CODE     ---       LVL=0
      01001D2DH   LINE      CODE     ---       #417
      01001D2DH   LINE      CODE     ---       #418
      01001D2DH   LINE      CODE     ---       #419
      01001D3CH   LINE      CODE     ---       #420
      01001D4BH   LINE      CODE     ---       #421
      01001D5AH   LINE      CODE     ---       #422
      01001D69H   LINE      CODE     ---       #424
      01001D69H   LINE      CODE     ---       #425
      01001D78H   LINE      CODE     ---       #426
      01001D78H   LINE      CODE     ---       #428
      01001D87H   LINE      CODE     ---       #429
      01001D96H   LINE      CODE     ---       #430
      01001DA5H   LINE      CODE     ---       #431
      01001DB4H   LINE      CODE     ---       #432
      01001DBEH   LINE      CODE     ---       #433
      01001DC8H   LINE      CODE     ---       #434
      01001DD2H   LINE      CODE     ---       #435
      01001DE1H   LINE      CODE     ---       #436
      01001DF0H   LINE      CODE     ---       #438
      01001DF8H   LINE      CODE     ---       #440
      ---         BLOCKEND  ---      ---       LVL=0

      010028A1H   BLOCK     CODE     ---       LVL=0
      010028A1H   LINE      CODE     ---       #448
      010028A1H   LINE      CODE     ---       #449
      010028A1H   LINE      CODE     ---       #450
      010028B0H   LINE      CODE     ---       #451
      010028BFH   LINE      CODE     ---       #452
      010028CEH   LINE      CODE     ---       #453
      010028DDH   LINE      CODE     ---       #455
      010028DDH   LINE      CODE     ---       #456
      010028ECH   LINE      CODE     ---       #457
      010028ECH   LINE      CODE     ---       #459
      010028F2H   LINE      CODE     ---       #460
      ---         BLOCKEND  ---      ---       LVL=0

      01001DF9H   BLOCK     CODE     ---       LVL=0
      01001DF9H   LINE      CODE     ---       #469
      01001DF9H   LINE      CODE     ---       #470
      01001DF9H   LINE      CODE     ---       #471
      01001E02H   LINE      CODE     ---       #472
      01001E02H   LINE      CODE     ---       #473
      01001E09H   LINE      CODE     ---       #475
      01001E10H   LINE      CODE     ---       #478
      01001E10H   LINE      CODE     ---       #479
      01001E3FH   LINE      CODE     ---       #480
      01001E5AH   LINE      CODE     ---       #481
      01001E8FH   LINE      CODE     ---       #482
      01001E8FH   LINE      CODE     ---       #505
      01001E9DH   LINE      CODE     ---       #507
      01001EAEH   LINE      CODE     ---       #508
      01001EAEH   LINE      CODE     ---       #509
      01001EB4H   LINE      CODE     ---       #510
      01001EBBH   LINE      CODE     ---       #513
      01001EBBH   LINE      CODE     ---       #514
      01001EBEH   LINE      CODE     ---       #515
      01001EBEH   LINE      CODE     ---       #517
      01001EBEH   LINE      CODE     ---       #518
      01001EBEH   LINE      CODE     ---       #519
      ---         BLOCKEND  ---      ---       LVL=0

      01002B37H   BLOCK     CODE     ---       LVL=0
LX51 LINKER/LOCATER V4.41                                                             01/15/2025  09:25:09  PAGE 40


      01002B37H   LINE      CODE     ---       #527
      01002B37H   LINE      CODE     ---       #528
      01002B37H   LINE      CODE     ---       #529
      01002B3EH   LINE      CODE     ---       #530
      01002B3EH   LINE      CODE     ---       #531
      01002B42H   LINE      CODE     ---       #532
      01002B49H   LINE      CODE     ---       #533
      01002B4BH   LINE      CODE     ---       #534
      01002B61H   LINE      CODE     ---       #535
      01002B61H   LINE      CODE     ---       #536
      ---         BLOCKEND  ---      ---       LVL=0

      01002C64H   BLOCK     CODE     ---       LVL=0
      01002C64H   LINE      CODE     ---       #544
      01002C64H   LINE      CODE     ---       #545
      01002C64H   LINE      CODE     ---       #546
      01002C7AH   LINE      CODE     ---       #547
      ---         BLOCKEND  ---      ---       LVL=0

      ---         MODULE    ---      ---       MOTORPROTECT
      02000161H   PUBLIC    XDATA    ---       mcFaultDect
      02000157H   PUBLIC    XDATA    ---       mcProtectTime
      02000150H   PUBLIC    XDATA    ---       mcCurVarible
      01000D75H   PUBLIC    CODE     ---       Fault_Recovery
      0100074DH   PUBLIC    CODE     ---       Fault_phaseloss
      01001269H   PUBLIC    CODE     ---       Fault_Stall
      0100152DH   PUBLIC    CODE     ---       Fault_Start
      01002257H   PUBLIC    CODE     ---       Fault_Overcurrent
      010021ADH   PUBLIC    CODE     ---       Fault_OverUnderVoltage
      000000E8H.3 SFRSYM    DATA     BIT       GP43
      000000B0H.4 SFRSYM    DATA     BIT       GP34
      000000A0H.5 SFRSYM    DATA     BIT       GP25
      00000090H.6 SFRSYM    DATA     BIT       GP16
      00000080H.7 SFRSYM    DATA     BIT       GP07
      00000088H.1 SFRSYM    DATA     BIT       IT01
      00000088H.3 SFRSYM    DATA     BIT       IT10
      000000E8H.4 SFRSYM    DATA     BIT       GP44
      000000B0H.5 SFRSYM    DATA     BIT       GP35
      000000A0H.6 SFRSYM    DATA     BIT       GP26
      00000090H.7 SFRSYM    DATA     BIT       GP17
      00000080H   SFRSYM    DATA     BYTE      P0
      00000088H.4 SFRSYM    DATA     BIT       IT11
      000000C9H   SFRSYM    DATA     BYTE      RST_SR
      000000D9H   SFRSYM    DATA     BYTE      EVT_FILT
      000000E8H.5 SFRSYM    DATA     BIT       GP45
      000000B0H.6 SFRSYM    DATA     BIT       GP36
      000000A0H.7 SFRSYM    DATA     BIT       GP27
      00000090H   SFRSYM    DATA     BYTE      P1
      000000B0H.7 SFRSYM    DATA     BIT       GP37
      000000A0H   SFRSYM    DATA     BYTE      P2
      000000B0H   SFRSYM    DATA     BYTE      P3
      000000E8H   SFRSYM    DATA     BYTE      P4
      000000D0H.6 SFRSYM    DATA     BIT       AC
      000000A8H.7 SFRSYM    DATA     BIT       EA
      000000D5H   SFRSYM    DATA     BYTE      CMP_CR0
      000000D6H   SFRSYM    DATA     BYTE      CMP_CR1
      000000C6H   SFRSYM    DATA     WORD      MDU_A
      000000DAH   SFRSYM    DATA     BYTE      CMP_CR2
      000000C4H   SFRSYM    DATA     WORD      MDU_B
      000000B8H.2 SFRSYM    DATA     BIT       PX00
      000000DCH   SFRSYM    DATA     BYTE      CMP_CR3
      000000F8H   SFRSYM    DATA     BIT       OISUH
      000000C2H   SFRSYM    DATA     WORD      MDU_C
      000000B8H.3 SFRSYM    DATA     BIT       PX01
      000000B8H.4 SFRSYM    DATA     BIT       PX10
LX51 LINKER/LOCATER V4.41                                                             01/15/2025  09:25:09  PAGE 41


      000000E1H   SFRSYM    DATA     BYTE      CMP_CR4
      000000F8H.2 SFRSYM    DATA     BIT       OISVH
      000000CBH   SFRSYM    DATA     BYTE      MDU_D
      000000B8H.5 SFRSYM    DATA     BIT       PX11
      000000F8H.4 SFRSYM    DATA     BIT       OISWH
      000000F8H.1 SFRSYM    DATA     BIT       OISUL
      000000A8H   SFRSYM    DATA     BYTE      IE
      000000F8H.3 SFRSYM    DATA     BIT       OISVL
      000000F9H   SFRSYM    DATA     BYTE      PI_CR
      000000F8H.5 SFRSYM    DATA     BIT       OISWL
      000000D8H   SFRSYM    DATA     BIT       PCMP30
      000000AAH   SFRSYM    DATA     WORD      TIM2__CNTR
      000000D8H.1 SFRSYM    DATA     BIT       PCMP31
      000000A2H   SFRSYM    DATA     WORD      TIM3__CNTR
      00000092H   SFRSYM    DATA     WORD      TIM4__CNTR
      00000098H   SFRSYM    DATA     BIT       RI
      00000098H.6 SFRSYM    DATA     BIT       UT_MOD0
      00000098H.7 SFRSYM    DATA     BIT       UT_MOD1
      000000D0H.7 SFRSYM    DATA     BIT       CY
      00000098H.1 SFRSYM    DATA     BIT       TI
      000000C0H.2 SFRSYM    DATA     BIT       PTIM10
      00000084H   SFRSYM    DATA     BYTE      FLA_KEY
      000000C0H   SFRSYM    DATA     BIT       PTIM20
      000000C0H.3 SFRSYM    DATA     BIT       PTIM11
      00000098H   SFRSYM    DATA     BYTE      UT_CR
      000000C8H.2 SFRSYM    DATA     BIT       PTIM30
      000000C0H.1 SFRSYM    DATA     BIT       PTIM21
      00000099H   SFRSYM    DATA     BYTE      UT_DR
      000000C8H.3 SFRSYM    DATA     BIT       PTIM31
      000000D0H.2 SFRSYM    DATA     BIT       OV
      0000009AH   SFRSYM    DATA     WORD      UT_BAUD
      000000D8H.4 SFRSYM    DATA     BIT       PSPI_UT20
      000000D8H.5 SFRSYM    DATA     BIT       PSPI_UT21
      00000087H   SFRSYM    DATA     BYTE      PCON
      00000088H   SFRSYM    DATA     BYTE      TCON
      00000082H   SFRSYM    DATA     WORD      DPTR
      00000088H.2 SFRSYM    DATA     BIT       IF0
      000000AEH   SFRSYM    DATA     WORD      TIM2__ARR
      000000A1H   SFRSYM    DATA     BYTE      TIM2_CR0
      000000A6H   SFRSYM    DATA     WORD      TIM3__ARR
      0000009CH   SFRSYM    DATA     BYTE      TIM3_CR0
      000000A9H   SFRSYM    DATA     BYTE      TIM2_CR1
      00000096H   SFRSYM    DATA     WORD      TIM4__ARR
      0000009EH   SFRSYM    DATA     BYTE      TIM4_CR0
      0000009DH   SFRSYM    DATA     BYTE      TIM3_CR1
      000000F8H   SFRSYM    DATA     BYTE      DRV_OUT
      0000009FH   SFRSYM    DATA     BYTE      TIM4_CR1
      000000E0H   SFRSYM    DATA     BYTE      ACC
      000000DBH   SFRSYM    DATA     BYTE      LVSR
      000000A8H.4 SFRSYM    DATA     BIT       ES0
      00000085H   SFRSYM    DATA     BYTE      FLA_CR
      000000C0H.4 SFRSYM    DATA     BIT       PADC0
      000000B8H   SFRSYM    DATA     BYTE      IP0
      000000C0H.5 SFRSYM    DATA     BIT       PADC1
      000000C0H   SFRSYM    DATA     BYTE      IP1
      000000C8H   SFRSYM    DATA     BYTE      IP2
      00000098H.2 SFRSYM    DATA     BIT       RB8
      000000D8H   SFRSYM    DATA     BYTE      IP3
      000000A8H   SFRSYM    DATA     BIT       EX0
      00000098H.3 SFRSYM    DATA     BIT       TB8
      000000A8H.2 SFRSYM    DATA     BIT       EX1
      000000D0H   SFRSYM    DATA     BIT       P
      0000008AH   SFRSYM    DATA     BYTE      UT2_CR
      00000089H   SFRSYM    DATA     BYTE      UT2_DR
      00000098H.5 SFRSYM    DATA     BIT       SM2
LX51 LINKER/LOCATER V4.41                                                             01/15/2025  09:25:09  PAGE 42


      000000D8H.6 SFRSYM    DATA     BIT       PDMA0
      000000D8H.7 SFRSYM    DATA     BIT       PDMA1
      000000D0H.3 SFRSYM    DATA     BIT       RS0
      000000D0H.4 SFRSYM    DATA     BIT       RS1
      000000CAH   SFRSYM    DATA     BYTE      MDU_MD
      000000C1H   SFRSYM    DATA     BYTE      MDU_CR
      000000F8H.7 SFRSYM    DATA     BIT       MOE
      000000C0H.6 SFRSYM    DATA     BIT       PCMP0
      000000C0H.7 SFRSYM    DATA     BIT       PCMP1
      00000098H.4 SFRSYM    DATA     BIT       REN
      000000D7H   SFRSYM    DATA     BYTE      CMP_SR
      000000C8H   SFRSYM    DATA     BIT       PRTC0
      000000C8H.1 SFRSYM    DATA     BIT       PRTC1
      000000C8H.6 SFRSYM    DATA     BIT       PTSD0
      000000C8H.7 SFRSYM    DATA     BIT       PTSD1
      000000B8H.6 SFRSYM    DATA     BIT       PDRV0
      000000B8H.7 SFRSYM    DATA     BIT       PDRV1
      000000D1H   SFRSYM    DATA     BYTE      P1_IE
      000000D3H   SFRSYM    DATA     BYTE      P2_IE
      000000D2H   SFRSYM    DATA     BYTE      P1_IF
      000000D4H   SFRSYM    DATA     BYTE      P2_IF
      000000ACH   SFRSYM    DATA     WORD      TIM2__DR
      000000C8H.4 SFRSYM    DATA     BIT       PTIM4S0
      000000FCH   SFRSYM    DATA     BYTE      P0_OE
      000000A4H   SFRSYM    DATA     WORD      TIM3__DR
      000000C8H.5 SFRSYM    DATA     BIT       PTIM4S1
      000000FDH   SFRSYM    DATA     BYTE      P1_OE
      00000094H   SFRSYM    DATA     WORD      TIM4__DR
      000000D0H.5 SFRSYM    DATA     BIT       F0
      000000FEH   SFRSYM    DATA     BYTE      P2_OE
      000000D0H.1 SFRSYM    DATA     BIT       F1
      000000FFH   SFRSYM    DATA     BYTE      P3_OE
      00000080H   SFRSYM    DATA     BIT       GP00
      000000E9H   SFRSYM    DATA     BYTE      P4_OE
      00000090H   SFRSYM    DATA     BIT       GP10
      00000080H.1 SFRSYM    DATA     BIT       GP01
      000000A8H.6 SFRSYM    DATA     BIT       RTCIE
      000000A0H   SFRSYM    DATA     BIT       GP20
      00000090H.1 SFRSYM    DATA     BIT       GP11
      00000080H.2 SFRSYM    DATA     BIT       GP02
      000000B0H   SFRSYM    DATA     BIT       GP30
      000000A0H.1 SFRSYM    DATA     BIT       GP21
      00000090H.2 SFRSYM    DATA     BIT       GP12
      00000080H.3 SFRSYM    DATA     BIT       GP03
      000000D8H.2 SFRSYM    DATA     BIT       PI2C_UT10
      000000B8H   SFRSYM    DATA     BIT       PLVW0
      000000A8H.1 SFRSYM    DATA     BIT       TSDIE
      000000D0H   SFRSYM    DATA     BYTE      PSW
      000000B0H.1 SFRSYM    DATA     BIT       GP31
      000000A0H.2 SFRSYM    DATA     BIT       GP22
      00000090H.3 SFRSYM    DATA     BIT       GP13
      00000080H.4 SFRSYM    DATA     BIT       GP04
      000000D8H.3 SFRSYM    DATA     BIT       PI2C_UT11
      000000B8H.1 SFRSYM    DATA     BIT       PLVW1
      000000A8H.3 SFRSYM    DATA     BIT       SPIIE
      00000088H.5 SFRSYM    DATA     BIT       TSDIF
      000000B0H.2 SFRSYM    DATA     BIT       GP32
      000000A0H.3 SFRSYM    DATA     BIT       GP23
      00000090H.4 SFRSYM    DATA     BIT       GP14
      00000080H.5 SFRSYM    DATA     BIT       GP05
      000000E8H.2 SFRSYM    DATA     BIT       GP42
      000000B0H.3 SFRSYM    DATA     BIT       GP33
      000000A0H.4 SFRSYM    DATA     BIT       GP24
      00000090H.5 SFRSYM    DATA     BIT       GP15
      00000080H.6 SFRSYM    DATA     BIT       GP06
LX51 LINKER/LOCATER V4.41                                                             01/15/2025  09:25:09  PAGE 43


      00000088H   SFRSYM    DATA     BIT       IT00

      010021ADH   BLOCK     CODE     ---       LVL=0
      010021ADH   LINE      CODE     ---       #24
      010021ADH   LINE      CODE     ---       #25
      010021ADH   LINE      CODE     ---       #26
      010021B6H   LINE      CODE     ---       #27
      010021B6H   LINE      CODE     ---       #29
      010021C6H   LINE      CODE     ---       #30
      010021C6H   LINE      CODE     ---       #31
      010021D4H   LINE      CODE     ---       #33
      010021E3H   LINE      CODE     ---       #34
      010021E3H   LINE      CODE     ---       #35
      010021E7H   LINE      CODE     ---       #36
      010021EDH   LINE      CODE     ---       #37
      010021EDH   LINE      CODE     ---       #38
      010021EFH   LINE      CODE     ---       #39
      010021FEH   LINE      CODE     ---       #40
      010021FEH   LINE      CODE     ---       #41
      0100220AH   LINE      CODE     ---       #42
      0100220AH   LINE      CODE     ---       #45
      01002213H   LINE      CODE     ---       #46
      01002213H   LINE      CODE     ---       #47
      01002221H   LINE      CODE     ---       #49
      01002230H   LINE      CODE     ---       #50
      01002230H   LINE      CODE     ---       #51
      01002234H   LINE      CODE     ---       #52
      0100223AH   LINE      CODE     ---       #53
      0100223AH   LINE      CODE     ---       #54
      0100223BH   LINE      CODE     ---       #55
      0100224AH   LINE      CODE     ---       #56
      0100224AH   LINE      CODE     ---       #57
      01002256H   LINE      CODE     ---       #58
      01002256H   LINE      CODE     ---       #59
      01002256H   LINE      CODE     ---       #60
      ---         BLOCKEND  ---      ---       LVL=0

      01002257H   BLOCK     CODE     ---       LVL=0
      01002257H   LINE      CODE     ---       #67
      01002257H   LINE      CODE     ---       #68
      01002257H   LINE      CODE     ---       #69
      01002268H   LINE      CODE     ---       #70
      01002268H   LINE      CODE     ---       #71
      01002277H   LINE      CODE     ---       #72
      01002286H   LINE      CODE     ---       #73
      01002295H   LINE      CODE     ---       #75
      010022C8H   LINE      CODE     ---       #76
      010022C8H   LINE      CODE     ---       #77
      010022CEH   LINE      CODE     ---       #79
      010022D4H   LINE      CODE     ---       #80
      010022D4H   LINE      CODE     ---       #81
      010022DAH   LINE      CODE     ---       #82
      010022E1H   LINE      CODE     ---       #83
      010022E5H   LINE      CODE     ---       #84
      010022E9H   LINE      CODE     ---       #85
      010022EDH   LINE      CODE     ---       #86
      010022EDH   LINE      CODE     ---       #87
      010022EEH   LINE      CODE     ---       #88
      010022F7H   LINE      CODE     ---       #89
      010022F7H   LINE      CODE     ---       #90
      010022FAH   LINE      CODE     ---       #91
      010022FAH   LINE      CODE     ---       #92
      010022FAH   LINE      CODE     ---       #93
      ---         BLOCKEND  ---      ---       LVL=0

LX51 LINKER/LOCATER V4.41                                                             01/15/2025  09:25:09  PAGE 44


      0100152DH   BLOCK     CODE     ---       LVL=0
      0100152DH   LINE      CODE     ---       #100
      0100152DH   LINE      CODE     ---       #101
      0100152DH   LINE      CODE     ---       #102
      01001538H   LINE      CODE     ---       #103
      01001538H   LINE      CODE     ---       #104
      01001549H   LINE      CODE     ---       #105
      01001549H   LINE      CODE     ---       #106
      01001555H   LINE      CODE     ---       #108
      01001574H   LINE      CODE     ---       #109
      01001574H   LINE      CODE     ---       #110
      0100157BH   LINE      CODE     ---       #111
      01001581H   LINE      CODE     ---       #112
      01001587H   LINE      CODE     ---       #113
      01001587H   LINE      CODE     ---       #114
      01001587H   LINE      CODE     ---       #117
      0100159BH   LINE      CODE     ---       #118
      0100159BH   LINE      CODE     ---       #119
      010015A7H   LINE      CODE     ---       #120
      010015B5H   LINE      CODE     ---       #122
      010015C6H   LINE      CODE     ---       #123
      010015C6H   LINE      CODE     ---       #124
      010015CDH   LINE      CODE     ---       #126
      010015DBH   LINE      CODE     ---       #127
      010015DBH   LINE      CODE     ---       #128
      010015E9H   LINE      CODE     ---       #130
      010015FAH   LINE      CODE     ---       #131
      010015FAH   LINE      CODE     ---       #132
      01001600H   LINE      CODE     ---       #133
      01001607H   LINE      CODE     ---       #134
      0100160DH   LINE      CODE     ---       #135
      01001613H   LINE      CODE     ---       #136
      01001613H   LINE      CODE     ---       #137
      01001615H   LINE      CODE     ---       #139
      01001615H   LINE      CODE     ---       #140
      01001626H   LINE      CODE     ---       #141
      01001626H   LINE      CODE     ---       #142
      01001632H   LINE      CODE     ---       #143
      01001632H   LINE      CODE     ---       #144
      01001632H   LINE      CODE     ---       #145
      01001632H   LINE      CODE     ---       #146
      01001634H   LINE      CODE     ---       #148
      01001634H   LINE      CODE     ---       #149
      0100163BH   LINE      CODE     ---       #150
      0100163BH   LINE      CODE     ---       #153
      01001641H   LINE      CODE     ---       #154
      01001641H   LINE      CODE     ---       #155
      0100164FH   LINE      CODE     ---       #157
      01001660H   LINE      CODE     ---       #158
      01001660H   LINE      CODE     ---       #159
      01001664H   LINE      CODE     ---       #160
      0100166AH   LINE      CODE     ---       #161
      01001670H   LINE      CODE     ---       #162
      01001670H   LINE      CODE     ---       #163
      01001670H   LINE      CODE     ---       #164
      01001670H   LINE      CODE     ---       #165
      ---         BLOCKEND  ---      ---       LVL=0

      01001269H   BLOCK     CODE     ---       LVL=0
      01001269H   LINE      CODE     ---       #172
      01001269H   LINE      CODE     ---       #173
      01001269H   LINE      CODE     ---       #174
      01001274H   LINE      CODE     ---       #175
      01001274H   LINE      CODE     ---       #176
      01001283H   LINE      CODE     ---       #177
LX51 LINKER/LOCATER V4.41                                                             01/15/2025  09:25:09  PAGE 45


      01001283H   LINE      CODE     ---       #178
      0100128FH   LINE      CODE     ---       #179
      01001290H   LINE      CODE     ---       #181
      01001290H   LINE      CODE     ---       #182
      010012B9H   LINE      CODE     ---       #183
      010012B9H   LINE      CODE     ---       #184
      010012C7H   LINE      CODE     ---       #186
      010012D6H   LINE      CODE     ---       #187
      010012D6H   LINE      CODE     ---       #188
      010012DAH   LINE      CODE     ---       #189
      010012E0H   LINE      CODE     ---       #190
      010012E6H   LINE      CODE     ---       #191
      010012E6H   LINE      CODE     ---       #192
      010012E8H   LINE      CODE     ---       #194
      010012E8H   LINE      CODE     ---       #195
      010012F7H   LINE      CODE     ---       #196
      010012F7H   LINE      CODE     ---       #197
      01001303H   LINE      CODE     ---       #198
      01001303H   LINE      CODE     ---       #199
      01001303H   LINE      CODE     ---       #201
      0100132EH   LINE      CODE     ---       #202
      0100132EH   LINE      CODE     ---       #203
      0100133CH   LINE      CODE     ---       #205
      0100134BH   LINE      CODE     ---       #206
      0100134BH   LINE      CODE     ---       #207
      0100134FH   LINE      CODE     ---       #208
      01001355H   LINE      CODE     ---       #209
      01001358H   LINE      CODE     ---       #210
      0100135EH   LINE      CODE     ---       #211
      0100135EH   LINE      CODE     ---       #212
      01001360H   LINE      CODE     ---       #214
      01001360H   LINE      CODE     ---       #215
      0100136FH   LINE      CODE     ---       #216
      0100136FH   LINE      CODE     ---       #217
      0100137BH   LINE      CODE     ---       #218
      0100137BH   LINE      CODE     ---       #219
      0100137BH   LINE      CODE     ---       #222
      01001398H   LINE      CODE     ---       #223
      01001398H   LINE      CODE     ---       #224
      010013A6H   LINE      CODE     ---       #226
      010013B5H   LINE      CODE     ---       #227
      010013B5H   LINE      CODE     ---       #228
      010013B9H   LINE      CODE     ---       #229
      010013BFH   LINE      CODE     ---       #230
      010013C5H   LINE      CODE     ---       #231
      010013C5H   LINE      CODE     ---       #232
      010013C6H   LINE      CODE     ---       #234
      010013C6H   LINE      CODE     ---       #235
      010013D5H   LINE      CODE     ---       #236
      010013D5H   LINE      CODE     ---       #237
      010013E1H   LINE      CODE     ---       #238
      010013E1H   LINE      CODE     ---       #239
      010013E1H   LINE      CODE     ---       #240
      010013E1H   LINE      CODE     ---       #241
      010013E1H   LINE      CODE     ---       #242
      ---         BLOCKEND  ---      ---       LVL=0

      0100074DH   BLOCK     CODE     ---       LVL=0
      0100074DH   LINE      CODE     ---       #249
      0100074DH   LINE      CODE     ---       #250
      0100074DH   LINE      CODE     ---       #251
      01000758H   LINE      CODE     ---       #252
      01000758H   LINE      CODE     ---       #253
      01000766H   LINE      CODE     ---       #255
      01000778H   LINE      CODE     ---       #256
LX51 LINKER/LOCATER V4.41                                                             01/15/2025  09:25:09  PAGE 46


      01000778H   LINE      CODE     ---       #257
      0100077CH   LINE      CODE     ---       #261
      01000811H   LINE      CODE     ---       #262
      01000811H   LINE      CODE     ---       #263
      0100081FH   LINE      CODE     ---       #264
      01000821H   LINE      CODE     ---       #266
      01000821H   LINE      CODE     ---       #267
      01000830H   LINE      CODE     ---       #268
      01000830H   LINE      CODE     ---       #269
      0100083CH   LINE      CODE     ---       #270
      0100083CH   LINE      CODE     ---       #271
      0100083CH   LINE      CODE     ---       #274
      010008D1H   LINE      CODE     ---       #275
      010008D1H   LINE      CODE     ---       #276
      010008DFH   LINE      CODE     ---       #277
      010008E1H   LINE      CODE     ---       #279
      010008E1H   LINE      CODE     ---       #280
      010008F0H   LINE      CODE     ---       #281
      010008F0H   LINE      CODE     ---       #282
      010008FCH   LINE      CODE     ---       #283
      010008FCH   LINE      CODE     ---       #284
      010008FCH   LINE      CODE     ---       #287
      01000991H   LINE      CODE     ---       #288
      01000991H   LINE      CODE     ---       #289
      0100099FH   LINE      CODE     ---       #290
      010009A1H   LINE      CODE     ---       #292
      010009A1H   LINE      CODE     ---       #293
      010009B0H   LINE      CODE     ---       #294
      010009B0H   LINE      CODE     ---       #295
      010009BCH   LINE      CODE     ---       #296
      010009BCH   LINE      CODE     ---       #297
      010009BCH   LINE      CODE     ---       #299
      010009EFH   LINE      CODE     ---       #300
      010009EFH   LINE      CODE     ---       #301
      010009FDH   LINE      CODE     ---       #303
      01000A0CH   LINE      CODE     ---       #304
      01000A0CH   LINE      CODE     ---       #305
      01000A10H   LINE      CODE     ---       #306
      01000A16H   LINE      CODE     ---       #307
      01000A16H   LINE      CODE     ---       #309
      01000A18H   LINE      CODE     ---       #311
      01000A18H   LINE      CODE     ---       #312
      01000A1FH   LINE      CODE     ---       #313
      01000A1FH   LINE      CODE     ---       #315
      01000A26H   LINE      CODE     ---       #316
      01000A2AH   LINE      CODE     ---       #317
      01000A2EH   LINE      CODE     ---       #319
      01000A35H   LINE      CODE     ---       #321
      01000A60H   LINE      CODE     ---       #322
      01000A60H   LINE      CODE     ---       #323
      01000A66H   LINE      CODE     ---       #324
      01000A66H   LINE      CODE     ---       #326
      01000A66H   LINE      CODE     ---       #327
      01000A66H   LINE      CODE     ---       #328
      ---         BLOCKEND  ---      ---       LVL=0

      01000D75H   BLOCK     CODE     ---       LVL=0
      01000D75H   LINE      CODE     ---       #330
      01000D75H   LINE      CODE     ---       #331
      01000D75H   LINE      CODE     ---       #333
      01000D75H   LINE      CODE     ---       #335
      01000D8BH   LINE      CODE     ---       #336
      01000D8BH   LINE      CODE     ---       #337
      01000DA3H   LINE      CODE     ---       #338
      01000DA3H   LINE      CODE     ---       #339
LX51 LINKER/LOCATER V4.41                                                             01/15/2025  09:25:09  PAGE 47


      01000DB1H   LINE      CODE     ---       #341
      01000DC0H   LINE      CODE     ---       #342
      01000DC0H   LINE      CODE     ---       #343
      01000DC5H   LINE      CODE     ---       #344
      01000DC5H   LINE      CODE     ---       #345
      01000DC5H   LINE      CODE     ---       #346
      01000DC7H   LINE      CODE     ---       #348
      01000DC7H   LINE      CODE     ---       #349
      01000DCEH   LINE      CODE     ---       #350
      01000DCEH   LINE      CODE     ---       #351
      01000DCEH   LINE      CODE     ---       #353
      01000DE8H   LINE      CODE     ---       #354
      01000DE8H   LINE      CODE     ---       #355
      01000DF6H   LINE      CODE     ---       #357
      01000E05H   LINE      CODE     ---       #358
      01000E05H   LINE      CODE     ---       #359
      01000E09H   LINE      CODE     ---       #360
      01000E17H   LINE      CODE     ---       #361
      01000E1CH   LINE      CODE     ---       #362
      01000E1CH   LINE      CODE     ---       #363
      01000E1EH   LINE      CODE     ---       #365
      01000E1EH   LINE      CODE     ---       #366
      01000E25H   LINE      CODE     ---       #367
      01000E25H   LINE      CODE     ---       #370
      01000E43H   LINE      CODE     ---       #371
      01000E43H   LINE      CODE     ---       #372
      01000E51H   LINE      CODE     ---       #374
      01000E60H   LINE      CODE     ---       #375
      01000E60H   LINE      CODE     ---       #376
      01000E64H   LINE      CODE     ---       #377
      01000E72H   LINE      CODE     ---       #378
      01000E77H   LINE      CODE     ---       #379
      01000E77H   LINE      CODE     ---       #380
      01000E79H   LINE      CODE     ---       #382
      01000E79H   LINE      CODE     ---       #383
      01000E80H   LINE      CODE     ---       #384
      01000E80H   LINE      CODE     ---       #387
      01000E9EH   LINE      CODE     ---       #388
      01000E9EH   LINE      CODE     ---       #389
      01000EACH   LINE      CODE     ---       #391
      01000EBBH   LINE      CODE     ---       #392
      01000EBBH   LINE      CODE     ---       #393
      01000EC9H   LINE      CODE     ---       #394
      01000ED0H   LINE      CODE     ---       #395
      01000ED4H   LINE      CODE     ---       #396
      01000EDAH   LINE      CODE     ---       #397
      01000EDEH   LINE      CODE     ---       #398
      01000EDEH   LINE      CODE     ---       #399
      01000EE0H   LINE      CODE     ---       #401
      01000EE0H   LINE      CODE     ---       #402
      01000EE7H   LINE      CODE     ---       #403
      01000EE7H   LINE      CODE     ---       #406
      01000F0BH   LINE      CODE     ---       #407
      01000F0BH   LINE      CODE     ---       #408
      01000F19H   LINE      CODE     ---       #410
      01000F28H   LINE      CODE     ---       #411
      01000F28H   LINE      CODE     ---       #412
      01000F2CH   LINE      CODE     ---       #413
      01000F3AH   LINE      CODE     ---       #414
      01000F3FH   LINE      CODE     ---       #415
      01000F3FH   LINE      CODE     ---       #416
      01000F3FH   LINE      CODE     ---       #419
      01000F3FH   LINE      CODE     ---       #421
      ---         BLOCKEND  ---      ---       LVL=0

LX51 LINKER/LOCATER V4.41                                                             01/15/2025  09:25:09  PAGE 48


      ---         MODULE    ---      ---       BEMFDETECT
      02000193H   PUBLIC    XDATA    ---       BEMFDetect
      010019C4H   PUBLIC    CODE     ---       BEMFFOCCloseLoopStart
      01001AACH   PUBLIC    CODE     ---       BEMFDealwith
      0100279FH   PUBLIC    CODE     ---       BEMFDetectFunc
      010027F9H   PUBLIC    CODE     ---       BEMFSpeedCal
      010018C1H   PUBLIC    CODE     ---       BEMFSpeedDetect
      010017A2H   PUBLIC    CODE     ---       _CWCCWDetect
      01002A7FH   PUBLIC    CODE     ---       Time2_BEMF_Init
      010028F3H   PUBLIC    CODE     ---       CMP_BEMF_Init
      01002A10H   PUBLIC    CODE     ---       BEMFDetectInit
      000000E8H.3 SFRSYM    DATA     BIT       GP43
      000000B0H.4 SFRSYM    DATA     BIT       GP34
      000000A0H.5 SFRSYM    DATA     BIT       GP25
      00000090H.6 SFRSYM    DATA     BIT       GP16
      00000080H.7 SFRSYM    DATA     BIT       GP07
      00000088H.1 SFRSYM    DATA     BIT       IT01
      00000088H.3 SFRSYM    DATA     BIT       IT10
      000000E8H.4 SFRSYM    DATA     BIT       GP44
      000000B0H.5 SFRSYM    DATA     BIT       GP35
      000000A0H.6 SFRSYM    DATA     BIT       GP26
      00000090H.7 SFRSYM    DATA     BIT       GP17
      00000080H   SFRSYM    DATA     BYTE      P0
      00000088H.4 SFRSYM    DATA     BIT       IT11
      000000C9H   SFRSYM    DATA     BYTE      RST_SR
      000000D9H   SFRSYM    DATA     BYTE      EVT_FILT
      000000E8H.5 SFRSYM    DATA     BIT       GP45
      000000B0H.6 SFRSYM    DATA     BIT       GP36
      000000A0H.7 SFRSYM    DATA     BIT       GP27
      00000090H   SFRSYM    DATA     BYTE      P1
      000000B0H.7 SFRSYM    DATA     BIT       GP37
      000000A0H   SFRSYM    DATA     BYTE      P2
      000000B0H   SFRSYM    DATA     BYTE      P3
      000000E8H   SFRSYM    DATA     BYTE      P4
      000000D0H.6 SFRSYM    DATA     BIT       AC
      000000A8H.7 SFRSYM    DATA     BIT       EA
      000000D5H   SFRSYM    DATA     BYTE      CMP_CR0
      000000D6H   SFRSYM    DATA     BYTE      CMP_CR1
      000000C6H   SFRSYM    DATA     WORD      MDU_A
      000000DAH   SFRSYM    DATA     BYTE      CMP_CR2
      000000C4H   SFRSYM    DATA     WORD      MDU_B
      000000B8H.2 SFRSYM    DATA     BIT       PX00
      000000DCH   SFRSYM    DATA     BYTE      CMP_CR3
      000000F8H   SFRSYM    DATA     BIT       OISUH
      000000C2H   SFRSYM    DATA     WORD      MDU_C
      000000B8H.3 SFRSYM    DATA     BIT       PX01
      000000B8H.4 SFRSYM    DATA     BIT       PX10
      000000E1H   SFRSYM    DATA     BYTE      CMP_CR4
      000000F8H.2 SFRSYM    DATA     BIT       OISVH
      000000CBH   SFRSYM    DATA     BYTE      MDU_D
      000000B8H.5 SFRSYM    DATA     BIT       PX11
      000000F8H.4 SFRSYM    DATA     BIT       OISWH
      000000F8H.1 SFRSYM    DATA     BIT       OISUL
      000000A8H   SFRSYM    DATA     BYTE      IE
      000000F8H.3 SFRSYM    DATA     BIT       OISVL
      000000F9H   SFRSYM    DATA     BYTE      PI_CR
      000000F8H.5 SFRSYM    DATA     BIT       OISWL
      000000D8H   SFRSYM    DATA     BIT       PCMP30
      000000AAH   SFRSYM    DATA     WORD      TIM2__CNTR
      000000D8H.1 SFRSYM    DATA     BIT       PCMP31
      000000A2H   SFRSYM    DATA     WORD      TIM3__CNTR
      00000092H   SFRSYM    DATA     WORD      TIM4__CNTR
      00000098H   SFRSYM    DATA     BIT       RI
      00000098H.6 SFRSYM    DATA     BIT       UT_MOD0
      00000098H.7 SFRSYM    DATA     BIT       UT_MOD1
LX51 LINKER/LOCATER V4.41                                                             01/15/2025  09:25:09  PAGE 49


      000000D0H.7 SFRSYM    DATA     BIT       CY
      00000098H.1 SFRSYM    DATA     BIT       TI
      000000C0H.2 SFRSYM    DATA     BIT       PTIM10
      00000084H   SFRSYM    DATA     BYTE      FLA_KEY
      000000C0H   SFRSYM    DATA     BIT       PTIM20
      000000C0H.3 SFRSYM    DATA     BIT       PTIM11
      00000098H   SFRSYM    DATA     BYTE      UT_CR
      000000C8H.2 SFRSYM    DATA     BIT       PTIM30
      000000C0H.1 SFRSYM    DATA     BIT       PTIM21
      00000099H   SFRSYM    DATA     BYTE      UT_DR
      000000C8H.3 SFRSYM    DATA     BIT       PTIM31
      000000D0H.2 SFRSYM    DATA     BIT       OV
      0000009AH   SFRSYM    DATA     WORD      UT_BAUD
      000000D8H.4 SFRSYM    DATA     BIT       PSPI_UT20
      000000D8H.5 SFRSYM    DATA     BIT       PSPI_UT21
      00000087H   SFRSYM    DATA     BYTE      PCON
      00000088H   SFRSYM    DATA     BYTE      TCON
      00000082H   SFRSYM    DATA     WORD      DPTR
      00000088H.2 SFRSYM    DATA     BIT       IF0
      000000AEH   SFRSYM    DATA     WORD      TIM2__ARR
      000000A1H   SFRSYM    DATA     BYTE      TIM2_CR0
      000000A6H   SFRSYM    DATA     WORD      TIM3__ARR
      0000009CH   SFRSYM    DATA     BYTE      TIM3_CR0
      000000A9H   SFRSYM    DATA     BYTE      TIM2_CR1
      00000096H   SFRSYM    DATA     WORD      TIM4__ARR
      0000009EH   SFRSYM    DATA     BYTE      TIM4_CR0
      0000009DH   SFRSYM    DATA     BYTE      TIM3_CR1
      000000F8H   SFRSYM    DATA     BYTE      DRV_OUT
      0000009FH   SFRSYM    DATA     BYTE      TIM4_CR1
      000000E0H   SFRSYM    DATA     BYTE      ACC
      000000DBH   SFRSYM    DATA     BYTE      LVSR
      000000A8H.4 SFRSYM    DATA     BIT       ES0
      00000085H   SFRSYM    DATA     BYTE      FLA_CR
      000000C0H.4 SFRSYM    DATA     BIT       PADC0
      000000B8H   SFRSYM    DATA     BYTE      IP0
      000000C0H.5 SFRSYM    DATA     BIT       PADC1
      000000C0H   SFRSYM    DATA     BYTE      IP1
      000000C8H   SFRSYM    DATA     BYTE      IP2
      00000098H.2 SFRSYM    DATA     BIT       RB8
      000000D8H   SFRSYM    DATA     BYTE      IP3
      000000A8H   SFRSYM    DATA     BIT       EX0
      00000098H.3 SFRSYM    DATA     BIT       TB8
      000000A8H.2 SFRSYM    DATA     BIT       EX1
      000000D0H   SFRSYM    DATA     BIT       P
      0000008AH   SFRSYM    DATA     BYTE      UT2_CR
      00000089H   SFRSYM    DATA     BYTE      UT2_DR
      00000098H.5 SFRSYM    DATA     BIT       SM2
      000000D8H.6 SFRSYM    DATA     BIT       PDMA0
      000000D8H.7 SFRSYM    DATA     BIT       PDMA1
      000000D0H.3 SFRSYM    DATA     BIT       RS0
      000000D0H.4 SFRSYM    DATA     BIT       RS1
      000000CAH   SFRSYM    DATA     BYTE      MDU_MD
      000000C1H   SFRSYM    DATA     BYTE      MDU_CR
      000000F8H.7 SFRSYM    DATA     BIT       MOE
      000000C0H.6 SFRSYM    DATA     BIT       PCMP0
      000000C0H.7 SFRSYM    DATA     BIT       PCMP1
      00000098H.4 SFRSYM    DATA     BIT       REN
      000000D7H   SFRSYM    DATA     BYTE      CMP_SR
      000000C8H   SFRSYM    DATA     BIT       PRTC0
      000000C8H.1 SFRSYM    DATA     BIT       PRTC1
      000000C8H.6 SFRSYM    DATA     BIT       PTSD0
      000000C8H.7 SFRSYM    DATA     BIT       PTSD1
      000000B8H.6 SFRSYM    DATA     BIT       PDRV0
      000000B8H.7 SFRSYM    DATA     BIT       PDRV1
      000000D1H   SFRSYM    DATA     BYTE      P1_IE
LX51 LINKER/LOCATER V4.41                                                             01/15/2025  09:25:09  PAGE 50


      000000D3H   SFRSYM    DATA     BYTE      P2_IE
      000000D2H   SFRSYM    DATA     BYTE      P1_IF
      000000D4H   SFRSYM    DATA     BYTE      P2_IF
      000000ACH   SFRSYM    DATA     WORD      TIM2__DR
      000000C8H.4 SFRSYM    DATA     BIT       PTIM4S0
      000000FCH   SFRSYM    DATA     BYTE      P0_OE
      000000A4H   SFRSYM    DATA     WORD      TIM3__DR
      000000C8H.5 SFRSYM    DATA     BIT       PTIM4S1
      000000FDH   SFRSYM    DATA     BYTE      P1_OE
      00000094H   SFRSYM    DATA     WORD      TIM4__DR
      000000D0H.5 SFRSYM    DATA     BIT       F0
      000000FEH   SFRSYM    DATA     BYTE      P2_OE
      000000D0H.1 SFRSYM    DATA     BIT       F1
      000000FFH   SFRSYM    DATA     BYTE      P3_OE
      00000080H   SFRSYM    DATA     BIT       GP00
      000000E9H   SFRSYM    DATA     BYTE      P4_OE
      00000090H   SFRSYM    DATA     BIT       GP10
      00000080H.1 SFRSYM    DATA     BIT       GP01
      000000A8H.6 SFRSYM    DATA     BIT       RTCIE
      000000A0H   SFRSYM    DATA     BIT       GP20
      00000090H.1 SFRSYM    DATA     BIT       GP11
      00000080H.2 SFRSYM    DATA     BIT       GP02
      000000B0H   SFRSYM    DATA     BIT       GP30
      000000A0H.1 SFRSYM    DATA     BIT       GP21
      00000090H.2 SFRSYM    DATA     BIT       GP12
      00000080H.3 SFRSYM    DATA     BIT       GP03
      000000D8H.2 SFRSYM    DATA     BIT       PI2C_UT10
      000000B8H   SFRSYM    DATA     BIT       PLVW0
      000000A8H.1 SFRSYM    DATA     BIT       TSDIE
      000000D0H   SFRSYM    DATA     BYTE      PSW
      000000B0H.1 SFRSYM    DATA     BIT       GP31
      000000A0H.2 SFRSYM    DATA     BIT       GP22
      00000090H.3 SFRSYM    DATA     BIT       GP13
      00000080H.4 SFRSYM    DATA     BIT       GP04
      000000D8H.3 SFRSYM    DATA     BIT       PI2C_UT11
      000000B8H.1 SFRSYM    DATA     BIT       PLVW1
      000000A8H.3 SFRSYM    DATA     BIT       SPIIE
      00000088H.5 SFRSYM    DATA     BIT       TSDIF
      000000B0H.2 SFRSYM    DATA     BIT       GP32
      000000A0H.3 SFRSYM    DATA     BIT       GP23
      00000090H.4 SFRSYM    DATA     BIT       GP14
      00000080H.5 SFRSYM    DATA     BIT       GP05
      000000E8H.2 SFRSYM    DATA     BIT       GP42
      000000B0H.3 SFRSYM    DATA     BIT       GP33
      000000A0H.4 SFRSYM    DATA     BIT       GP24
      00000090H.5 SFRSYM    DATA     BIT       GP15
      00000080H.6 SFRSYM    DATA     BIT       GP06
      00000088H   SFRSYM    DATA     BIT       IT00

      01002A10H   BLOCK     CODE     ---       LVL=0
      01002A10H   LINE      CODE     ---       #18
      01002A10H   LINE      CODE     ---       #19
      01002A10H   LINE      CODE     ---       #20
      01002A17H   LINE      CODE     ---       #21
      01002A1FH   LINE      CODE     ---       #22
      01002A24H   LINE      CODE     ---       #23
      01002A28H   LINE      CODE     ---       #24
      01002A30H   LINE      CODE     ---       #25
      01002A39H   LINE      CODE     ---       #26
      01002A3EH   LINE      CODE     ---       #27
      01002A40H   LINE      CODE     ---       #28
      01002A42H   LINE      CODE     ---       #31
      01002A45H   LINE      CODE     ---       #32
      ---         BLOCKEND  ---      ---       LVL=0

LX51 LINKER/LOCATER V4.41                                                             01/15/2025  09:25:09  PAGE 51


      010028F3H   BLOCK     CODE     ---       LVL=0
      010028F3H   LINE      CODE     ---       #40
      010028F3H   LINE      CODE     ---       #41
      010028F3H   LINE      CODE     ---       #50
      010028FAH   LINE      CODE     ---       #51
      010028FFH   LINE      CODE     ---       #52
      01002906H   LINE      CODE     ---       #60
      0100290EH   LINE      CODE     ---       #69
      01002911H   LINE      CODE     ---       #70
      01002914H   LINE      CODE     ---       #76
      0100291CH   LINE      CODE     ---       #80
      0100291FH   LINE      CODE     ---       #86
      01002927H   LINE      CODE     ---       #87
      0100292FH   LINE      CODE     ---       #88
      01002937H   LINE      CODE     ---       #90
      0100293AH   LINE      CODE     ---       #92
      0100293CH   LINE      CODE     ---       #93
      0100293EH   LINE      CODE     ---       #95
      01002941H   LINE      CODE     ---       #96
      ---         BLOCKEND  ---      ---       LVL=0

      01002A7FH   BLOCK     CODE     ---       LVL=0
      01002A7FH   LINE      CODE     ---       #103
      01002A7FH   LINE      CODE     ---       #104
      01002A7FH   LINE      CODE     ---       #108
      01002A82H   LINE      CODE     ---       #115
      01002A8AH   LINE      CODE     ---       #122
      01002A92H   LINE      CODE     ---       #127
      01002A95H   LINE      CODE     ---       #128
      01002A98H   LINE      CODE     ---       #129
      01002A9BH   LINE      CODE     ---       #135
      01002AA1H   LINE      CODE     ---       #136
      01002AA7H   LINE      CODE     ---       #137
      01002AACH   LINE      CODE     ---       #139
      01002AAFH   LINE      CODE     ---       #141
      ---         BLOCKEND  ---      ---       LVL=0

      010017A2H   BLOCK     CODE     ---       LVL=0
      00000007H   SYMBOL    DATA     BYTE      HallStatus
      00000005H   SYMBOL    DATA     BYTE      TargetFR
      010017A2H   BLOCK     CODE     NEAR LAB  LVL=1
      02000191H   SYMBOL    XDATA    BYTE      MC_FR
      02000192H   SYMBOL    XDATA    BYTE      MC_HallStatus
      ---         BLOCKEND  ---      ---       LVL=1
      010017A2H   LINE      CODE     ---       #148
      010017A2H   LINE      CODE     ---       #149
      010017A2H   LINE      CODE     ---       #153
      010017A9H   LINE      CODE     ---       #154
      010017A9H   LINE      CODE     ---       #155
      010017ABH   LINE      CODE     ---       #156
      010017B0H   LINE      CODE     ---       #157
      010017B2H   LINE      CODE     ---       #158
      010017B2H   LINE      CODE     ---       #160
      010017B9H   LINE      CODE     ---       #161
      010017B9H   LINE      CODE     ---       #162
      010017DDH   LINE      CODE     ---       #163
      010017DDH   LINE      CODE     ---       #164
      010017DDH   LINE      CODE     ---       #165
      010017E1H   LINE      CODE     ---       #166
      010017E1H   LINE      CODE     ---       #167
      010017E4H   LINE      CODE     ---       #168
      010017E4H   LINE      CODE     ---       #169
      010017E9H   LINE      CODE     ---       #170
      010017EBH   LINE      CODE     ---       #172
      010017EBH   LINE      CODE     ---       #173
LX51 LINKER/LOCATER V4.41                                                             01/15/2025  09:25:09  PAGE 52


      010017F0H   LINE      CODE     ---       #174
      010017F0H   LINE      CODE     ---       #175
      010017F0H   LINE      CODE     ---       #177
      010017F8H   LINE      CODE     ---       #178
      010017F8H   LINE      CODE     ---       #179
      010017FEH   LINE      CODE     ---       #180
      010017FEH   LINE      CODE     ---       #181
      010017FFH   LINE      CODE     ---       #182
      01001802H   LINE      CODE     ---       #191
      01001802H   LINE      CODE     ---       #192
      01001806H   LINE      CODE     ---       #193
      01001806H   LINE      CODE     ---       #194
      01001809H   LINE      CODE     ---       #195
      01001809H   LINE      CODE     ---       #196
      0100180EH   LINE      CODE     ---       #197
      01001810H   LINE      CODE     ---       #199
      01001810H   LINE      CODE     ---       #200
      01001815H   LINE      CODE     ---       #201
      01001815H   LINE      CODE     ---       #202
      01001815H   LINE      CODE     ---       #204
      0100181DH   LINE      CODE     ---       #205
      0100181DH   LINE      CODE     ---       #206
      01001823H   LINE      CODE     ---       #207
      01001823H   LINE      CODE     ---       #208
      01001824H   LINE      CODE     ---       #209
      01001827H   LINE      CODE     ---       #211
      01001827H   LINE      CODE     ---       #212
      01001827H   LINE      CODE     ---       #213
      01001827H   LINE      CODE     ---       #214
      01001827H   LINE      CODE     ---       #216
      0100182AH   LINE      CODE     ---       #218
      0100182AH   LINE      CODE     ---       #219
      0100182EH   LINE      CODE     ---       #220
      0100182EH   LINE      CODE     ---       #221
      01001831H   LINE      CODE     ---       #222
      01001831H   LINE      CODE     ---       #223
      01001836H   LINE      CODE     ---       #224
      01001838H   LINE      CODE     ---       #226
      01001838H   LINE      CODE     ---       #227
      0100183DH   LINE      CODE     ---       #228
      0100183DH   LINE      CODE     ---       #229
      0100183DH   LINE      CODE     ---       #231
      01001842H   LINE      CODE     ---       #232
      01001842H   LINE      CODE     ---       #233
      01001848H   LINE      CODE     ---       #234
      01001848H   LINE      CODE     ---       #235
      01001849H   LINE      CODE     ---       #236
      0100184BH   LINE      CODE     ---       #238
      0100184BH   LINE      CODE     ---       #239
      0100184BH   LINE      CODE     ---       #240
      0100184BH   LINE      CODE     ---       #241
      0100184BH   LINE      CODE     ---       #243
      0100184DH   LINE      CODE     ---       #245
      0100184DH   LINE      CODE     ---       #246
      01001851H   LINE      CODE     ---       #247
      01001851H   LINE      CODE     ---       #248
      01001854H   LINE      CODE     ---       #249
      01001854H   LINE      CODE     ---       #250
      01001859H   LINE      CODE     ---       #251
      0100185BH   LINE      CODE     ---       #253
      0100185BH   LINE      CODE     ---       #254
      01001860H   LINE      CODE     ---       #255
      01001860H   LINE      CODE     ---       #256
      01001860H   LINE      CODE     ---       #258
      01001865H   LINE      CODE     ---       #259
LX51 LINKER/LOCATER V4.41                                                             01/15/2025  09:25:09  PAGE 53


      01001865H   LINE      CODE     ---       #260
      0100186BH   LINE      CODE     ---       #261
      0100186BH   LINE      CODE     ---       #262
      0100186CH   LINE      CODE     ---       #263
      0100186EH   LINE      CODE     ---       #265
      0100186EH   LINE      CODE     ---       #266
      0100186EH   LINE      CODE     ---       #267
      0100186EH   LINE      CODE     ---       #268
      0100186EH   LINE      CODE     ---       #270
      01001870H   LINE      CODE     ---       #272
      01001870H   LINE      CODE     ---       #273
      01001874H   LINE      CODE     ---       #274
      01001874H   LINE      CODE     ---       #275
      01001877H   LINE      CODE     ---       #276
      01001877H   LINE      CODE     ---       #277
      0100187CH   LINE      CODE     ---       #278
      0100187EH   LINE      CODE     ---       #280
      0100187EH   LINE      CODE     ---       #281
      01001883H   LINE      CODE     ---       #282
      01001883H   LINE      CODE     ---       #283
      01001883H   LINE      CODE     ---       #285
      01001888H   LINE      CODE     ---       #286
      01001888H   LINE      CODE     ---       #287
      0100188EH   LINE      CODE     ---       #288
      0100188EH   LINE      CODE     ---       #289
      0100188FH   LINE      CODE     ---       #290
      01001891H   LINE      CODE     ---       #292
      01001891H   LINE      CODE     ---       #293
      01001891H   LINE      CODE     ---       #294
      01001891H   LINE      CODE     ---       #295
      01001891H   LINE      CODE     ---       #297
      01001893H   LINE      CODE     ---       #299
      01001893H   LINE      CODE     ---       #300
      01001897H   LINE      CODE     ---       #301
      01001897H   LINE      CODE     ---       #302
      0100189AH   LINE      CODE     ---       #303
      0100189AH   LINE      CODE     ---       #304
      0100189FH   LINE      CODE     ---       #305
      010018A1H   LINE      CODE     ---       #307
      010018A1H   LINE      CODE     ---       #308
      010018A6H   LINE      CODE     ---       #309
      010018A6H   LINE      CODE     ---       #310
      010018A6H   LINE      CODE     ---       #312
      010018AAH   LINE      CODE     ---       #313
      010018AAH   LINE      CODE     ---       #314
      010018B0H   LINE      CODE     ---       #315
      010018B0H   LINE      CODE     ---       #316
      010018B1H   LINE      CODE     ---       #317
      010018B3H   LINE      CODE     ---       #319
      010018B3H   LINE      CODE     ---       #320
      010018B6H   LINE      CODE     ---       #321
      010018B6H   LINE      CODE     ---       #322
      010018B6H   LINE      CODE     ---       #324
      010018B6H   LINE      CODE     ---       #325
      010018B6H   LINE      CODE     ---       #327
      010018BBH   LINE      CODE     ---       #328
      010018BBH   LINE      CODE     ---       #330
      010018C0H   LINE      CODE     ---       #331
      ---         BLOCKEND  ---      ---       LVL=0

      010018C1H   BLOCK     CODE     ---       LVL=0
      010018C1H   LINE      CODE     ---       #339
      010018C1H   LINE      CODE     ---       #340
      010018C1H   LINE      CODE     ---       #341
      010018C7H   LINE      CODE     ---       #342
LX51 LINKER/LOCATER V4.41                                                             01/15/2025  09:25:09  PAGE 54


      010018C7H   LINE      CODE     ---       #343
      010018C9H   LINE      CODE     ---       #345
      010018D0H   LINE      CODE     ---       #346
      010018D4H   LINE      CODE     ---       #347
      010018D8H   LINE      CODE     ---       #348
      010018DCH   LINE      CODE     ---       #349
      010018E0H   LINE      CODE     ---       #350
      010018E4H   LINE      CODE     ---       #351
      010018E8H   LINE      CODE     ---       #352
      010018ECH   LINE      CODE     ---       #353
      010018F2H   LINE      CODE     ---       #354
      010018F6H   LINE      CODE     ---       #355
      010018F7H   LINE      CODE     ---       #357
      010018F7H   LINE      CODE     ---       #358
      01001901H   LINE      CODE     ---       #359
      01001906H   LINE      CODE     ---       #361
      01001922H   LINE      CODE     ---       #363
      01001979H   LINE      CODE     ---       #366
      0100197FH   LINE      CODE     ---       #368
      01001988H   LINE      CODE     ---       #369
      01001988H   LINE      CODE     ---       #370
      0100198BH   LINE      CODE     ---       #371
      01001995H   LINE      CODE     ---       #372
      01001997H   LINE      CODE     ---       #374
      01001997H   LINE      CODE     ---       #375
      0100199AH   LINE      CODE     ---       #376
      010019A4H   LINE      CODE     ---       #377
      010019B3H   LINE      CODE     ---       #378
      010019B3H   LINE      CODE     ---       #380
      010019BAH   LINE      CODE     ---       #381
      010019BAH   LINE      CODE     ---       #382
      010019C0H   LINE      CODE     ---       #383
      010019C3H   LINE      CODE     ---       #384
      010019C3H   LINE      CODE     ---       #385
      010019C3H   LINE      CODE     ---       #386
      ---         BLOCKEND  ---      ---       LVL=0

      010027F9H   BLOCK     CODE     ---       LVL=0
      010027F9H   LINE      CODE     ---       #393
      010027F9H   LINE      CODE     ---       #394
      010027F9H   LINE      CODE     ---       #395
      010027FFH   LINE      CODE     ---       #396
      010027FFH   LINE      CODE     ---       #397
      01002848H   LINE      CODE     ---       #398
      0100284DH   LINE      CODE     ---       #399
      0100284DH   LINE      CODE     ---       #400
      ---         BLOCKEND  ---      ---       LVL=0

      0100279FH   BLOCK     CODE     ---       LVL=0
      0100279FH   LINE      CODE     ---       #408
      0100279FH   LINE      CODE     ---       #409
      0100279FH   LINE      CODE     ---       #410
      010027AEH   LINE      CODE     ---       #411
      010027AEH   LINE      CODE     ---       #413
      010027C0H   LINE      CODE     ---       #416
      010027C3H   LINE      CODE     ---       #419
      010027C6H   LINE      CODE     ---       #421
      010027CCH   LINE      CODE     ---       #422
      010027CCH   LINE      CODE     ---       #424
      010027E7H   LINE      CODE     ---       #425
      010027E7H   LINE      CODE     ---       #427
      010027EAH   LINE      CODE     ---       #428
      010027EDH   LINE      CODE     ---       #429
      010027F0H   LINE      CODE     ---       #431
      010027F5H   LINE      CODE     ---       #432
LX51 LINKER/LOCATER V4.41                                                             01/15/2025  09:25:09  PAGE 55


      010027F5H   LINE      CODE     ---       #433
      010027F5H   LINE      CODE     ---       #434
      010027F8H   LINE      CODE     ---       #435
      010027F8H   LINE      CODE     ---       #436
      ---         BLOCKEND  ---      ---       LVL=0

      01001AACH   BLOCK     CODE     ---       LVL=0
      01001AACH   LINE      CODE     ---       #444
      01001AACH   LINE      CODE     ---       #445
      01001AACH   LINE      CODE     ---       #446
      01001ACAH   LINE      CODE     ---       #447
      01001ACAH   LINE      CODE     ---       #448
      01001AD1H   LINE      CODE     ---       #449
      01001AD1H   LINE      CODE     ---       #450
      01001AEBH   LINE      CODE     ---       #451
      01001AEBH   LINE      CODE     ---       #452
      01001AF1H   LINE      CODE     ---       #453
      01001AF1H   LINE      CODE     ---       #454
      01001AF3H   LINE      CODE     ---       #455
      01001AF8H   LINE      CODE     ---       #456
      01001AF8H   LINE      CODE     ---       #457
      01001AFFH   LINE      CODE     ---       #458
      01001B08H   LINE      CODE     ---       #459
      01001B0AH   LINE      CODE     ---       #460
      01001B0FH   LINE      CODE     ---       #461
      01001B16H   LINE      CODE     ---       #462
      01001B29H   LINE      CODE     ---       #463
      01001B3FH   LINE      CODE     ---       #464
      01001B55H   LINE      CODE     ---       #465
      01001B5CH   LINE      CODE     ---       #466
      01001B5EH   LINE      CODE     ---       #467
      01001B64H   LINE      CODE     ---       #468
      01001B64H   LINE      CODE     ---       #469
      01001B64H   LINE      CODE     ---       #471
      01001B7DH   LINE      CODE     ---       #472
      01001B7DH   LINE      CODE     ---       #473
      01001B80H   LINE      CODE     ---       #474
      01001B83H   LINE      CODE     ---       #475
      01001B89H   LINE      CODE     ---       #476
      01001B89H   LINE      CODE     ---       #477
      ---         BLOCKEND  ---      ---       LVL=0

      010019C4H   BLOCK     CODE     ---       LVL=0
      010019C4H   LINE      CODE     ---       #485
      010019C4H   LINE      CODE     ---       #486
      010019C4H   LINE      CODE     ---       #487
      010019C6H   LINE      CODE     ---       #488
      010019C9H   LINE      CODE     ---       #489
      010019D0H   LINE      CODE     ---       #490
      010019D4H   LINE      CODE     ---       #491
      010019DDH   LINE      CODE     ---       #492
      010019E4H   LINE      CODE     ---       #493
      010019ECH   LINE      CODE     ---       #494
      010019F3H   LINE      CODE     ---       #495
      010019F7H   LINE      CODE     ---       #496
      010019FEH   LINE      CODE     ---       #497
      01001A08H   LINE      CODE     ---       #498
      01001A12H   LINE      CODE     ---       #501
      01001A19H   LINE      CODE     ---       #503
      01001A22H   LINE      CODE     ---       #504
      01001A27H   LINE      CODE     ---       #506
      01001A31H   LINE      CODE     ---       #507
      01001A39H   LINE      CODE     ---       #509
      01001A40H   LINE      CODE     ---       #510
      01001A44H   LINE      CODE     ---       #511
LX51 LINKER/LOCATER V4.41                                                             01/15/2025  09:25:09  PAGE 56


      01001A48H   LINE      CODE     ---       #513
      01001A52H   LINE      CODE     ---       #514
      01001A59H   LINE      CODE     ---       #516
      01001A62H   LINE      CODE     ---       #518
      01001A6BH   LINE      CODE     ---       #520
      01001A75H   LINE      CODE     ---       #522
      01001A7FH   LINE      CODE     ---       #524
      01001A85H   LINE      CODE     ---       #526
      01001A8CH   LINE      CODE     ---       #532
      01001A93H   LINE      CODE     ---       #533
      01001AA9H   LINE      CODE     ---       #534
      01001AABH   LINE      CODE     ---       #535
      ---         BLOCKEND  ---      ---       LVL=0

      ---         MODULE    ---      ---       PLLINITANDSTATESWITCH
      000000E8H.3 SFRSYM    DATA     BIT       GP43
      000000B0H.4 SFRSYM    DATA     BIT       GP34
      000000A0H.5 SFRSYM    DATA     BIT       GP25
      00000090H.6 SFRSYM    DATA     BIT       GP16
      00000080H.7 SFRSYM    DATA     BIT       GP07
      00000088H.1 SFRSYM    DATA     BIT       IT01
      00000088H.3 SFRSYM    DATA     BIT       IT10
      000000E8H.4 SFRSYM    DATA     BIT       GP44
      000000B0H.5 SFRSYM    DATA     BIT       GP35
      000000A0H.6 SFRSYM    DATA     BIT       GP26
      00000090H.7 SFRSYM    DATA     BIT       GP17
      00000080H   SFRSYM    DATA     BYTE      P0
      00000088H.4 SFRSYM    DATA     BIT       IT11
      000000C9H   SFRSYM    DATA     BYTE      RST_SR
      000000D9H   SFRSYM    DATA     BYTE      EVT_FILT
      000000E8H.5 SFRSYM    DATA     BIT       GP45
      000000B0H.6 SFRSYM    DATA     BIT       GP36
      000000A0H.7 SFRSYM    DATA     BIT       GP27
      00000090H   SFRSYM    DATA     BYTE      P1
      000000B0H.7 SFRSYM    DATA     BIT       GP37
      000000A0H   SFRSYM    DATA     BYTE      P2
      000000B0H   SFRSYM    DATA     BYTE      P3
      000000E8H   SFRSYM    DATA     BYTE      P4
      000000D0H.6 SFRSYM    DATA     BIT       AC
      000000A8H.7 SFRSYM    DATA     BIT       EA
      000000D5H   SFRSYM    DATA     BYTE      CMP_CR0
      000000D6H   SFRSYM    DATA     BYTE      CMP_CR1
      000000C6H   SFRSYM    DATA     WORD      MDU_A
      000000DAH   SFRSYM    DATA     BYTE      CMP_CR2
      000000C4H   SFRSYM    DATA     WORD      MDU_B
      000000B8H.2 SFRSYM    DATA     BIT       PX00
      000000DCH   SFRSYM    DATA     BYTE      CMP_CR3
      000000F8H   SFRSYM    DATA     BIT       OISUH
      000000C2H   SFRSYM    DATA     WORD      MDU_C
      000000B8H.3 SFRSYM    DATA     BIT       PX01
      000000B8H.4 SFRSYM    DATA     BIT       PX10
      000000E1H   SFRSYM    DATA     BYTE      CMP_CR4
      000000F8H.2 SFRSYM    DATA     BIT       OISVH
      000000CBH   SFRSYM    DATA     BYTE      MDU_D
      000000B8H.5 SFRSYM    DATA     BIT       PX11
      000000F8H.4 SFRSYM    DATA     BIT       OISWH
      000000F8H.1 SFRSYM    DATA     BIT       OISUL
      000000A8H   SFRSYM    DATA     BYTE      IE
      000000F8H.3 SFRSYM    DATA     BIT       OISVL
      000000F9H   SFRSYM    DATA     BYTE      PI_CR
      000000F8H.5 SFRSYM    DATA     BIT       OISWL
      000000D8H   SFRSYM    DATA     BIT       PCMP30
      000000AAH   SFRSYM    DATA     WORD      TIM2__CNTR
      000000D8H.1 SFRSYM    DATA     BIT       PCMP31
      000000A2H   SFRSYM    DATA     WORD      TIM3__CNTR
LX51 LINKER/LOCATER V4.41                                                             01/15/2025  09:25:09  PAGE 57


      00000092H   SFRSYM    DATA     WORD      TIM4__CNTR
      00000098H   SFRSYM    DATA     BIT       RI
      00000098H.6 SFRSYM    DATA     BIT       UT_MOD0
      00000098H.7 SFRSYM    DATA     BIT       UT_MOD1
      000000D0H.7 SFRSYM    DATA     BIT       CY
      00000098H.1 SFRSYM    DATA     BIT       TI
      000000C0H.2 SFRSYM    DATA     BIT       PTIM10
      00000084H   SFRSYM    DATA     BYTE      FLA_KEY
      000000C0H   SFRSYM    DATA     BIT       PTIM20
      000000C0H.3 SFRSYM    DATA     BIT       PTIM11
      00000098H   SFRSYM    DATA     BYTE      UT_CR
      000000C8H.2 SFRSYM    DATA     BIT       PTIM30
      000000C0H.1 SFRSYM    DATA     BIT       PTIM21
      00000099H   SFRSYM    DATA     BYTE      UT_DR
      000000C8H.3 SFRSYM    DATA     BIT       PTIM31
      000000D0H.2 SFRSYM    DATA     BIT       OV
      0000009AH   SFRSYM    DATA     WORD      UT_BAUD
      000000D8H.4 SFRSYM    DATA     BIT       PSPI_UT20
      000000D8H.5 SFRSYM    DATA     BIT       PSPI_UT21
      00000087H   SFRSYM    DATA     BYTE      PCON
      00000088H   SFRSYM    DATA     BYTE      TCON
      00000082H   SFRSYM    DATA     WORD      DPTR
      00000088H.2 SFRSYM    DATA     BIT       IF0
      000000AEH   SFRSYM    DATA     WORD      TIM2__ARR
      000000A1H   SFRSYM    DATA     BYTE      TIM2_CR0
      000000A6H   SFRSYM    DATA     WORD      TIM3__ARR
      0000009CH   SFRSYM    DATA     BYTE      TIM3_CR0
      000000A9H   SFRSYM    DATA     BYTE      TIM2_CR1
      00000096H   SFRSYM    DATA     WORD      TIM4__ARR
      0000009EH   SFRSYM    DATA     BYTE      TIM4_CR0
      0000009DH   SFRSYM    DATA     BYTE      TIM3_CR1
      000000F8H   SFRSYM    DATA     BYTE      DRV_OUT
      0000009FH   SFRSYM    DATA     BYTE      TIM4_CR1
      000000E0H   SFRSYM    DATA     BYTE      ACC
      000000DBH   SFRSYM    DATA     BYTE      LVSR
      000000A8H.4 SFRSYM    DATA     BIT       ES0
      00000085H   SFRSYM    DATA     BYTE      FLA_CR
      000000C0H.4 SFRSYM    DATA     BIT       PADC0
      000000B8H   SFRSYM    DATA     BYTE      IP0
      000000C0H.5 SFRSYM    DATA     BIT       PADC1
      000000C0H   SFRSYM    DATA     BYTE      IP1
      000000C8H   SFRSYM    DATA     BYTE      IP2
      00000098H.2 SFRSYM    DATA     BIT       RB8
      000000D8H   SFRSYM    DATA     BYTE      IP3
      000000A8H   SFRSYM    DATA     BIT       EX0
      00000098H.3 SFRSYM    DATA     BIT       TB8
      000000A8H.2 SFRSYM    DATA     BIT       EX1
      000000D0H   SFRSYM    DATA     BIT       P
      0000008AH   SFRSYM    DATA     BYTE      UT2_CR
      00000089H   SFRSYM    DATA     BYTE      UT2_DR
      00000098H.5 SFRSYM    DATA     BIT       SM2
      000000D8H.6 SFRSYM    DATA     BIT       PDMA0
      000000D8H.7 SFRSYM    DATA     BIT       PDMA1
      000000D0H.3 SFRSYM    DATA     BIT       RS0
      000000D0H.4 SFRSYM    DATA     BIT       RS1
      000000CAH   SFRSYM    DATA     BYTE      MDU_MD
      000000C1H   SFRSYM    DATA     BYTE      MDU_CR
      000000F8H.7 SFRSYM    DATA     BIT       MOE
      000000C0H.6 SFRSYM    DATA     BIT       PCMP0
      000000C0H.7 SFRSYM    DATA     BIT       PCMP1
      00000098H.4 SFRSYM    DATA     BIT       REN
      000000D7H   SFRSYM    DATA     BYTE      CMP_SR
      000000C8H   SFRSYM    DATA     BIT       PRTC0
      000000C8H.1 SFRSYM    DATA     BIT       PRTC1
      000000C8H.6 SFRSYM    DATA     BIT       PTSD0
LX51 LINKER/LOCATER V4.41                                                             01/15/2025  09:25:09  PAGE 58


      000000C8H.7 SFRSYM    DATA     BIT       PTSD1
      000000B8H.6 SFRSYM    DATA     BIT       PDRV0
      000000B8H.7 SFRSYM    DATA     BIT       PDRV1
      000000D1H   SFRSYM    DATA     BYTE      P1_IE
      000000D3H   SFRSYM    DATA     BYTE      P2_IE
      000000D2H   SFRSYM    DATA     BYTE      P1_IF
      000000D4H   SFRSYM    DATA     BYTE      P2_IF
      000000ACH   SFRSYM    DATA     WORD      TIM2__DR
      000000C8H.4 SFRSYM    DATA     BIT       PTIM4S0
      000000FCH   SFRSYM    DATA     BYTE      P0_OE
      000000A4H   SFRSYM    DATA     WORD      TIM3__DR
      000000C8H.5 SFRSYM    DATA     BIT       PTIM4S1
      000000FDH   SFRSYM    DATA     BYTE      P1_OE
      00000094H   SFRSYM    DATA     WORD      TIM4__DR
      000000D0H.5 SFRSYM    DATA     BIT       F0
      000000FEH   SFRSYM    DATA     BYTE      P2_OE
      000000D0H.1 SFRSYM    DATA     BIT       F1
      000000FFH   SFRSYM    DATA     BYTE      P3_OE
      00000080H   SFRSYM    DATA     BIT       GP00
      000000E9H   SFRSYM    DATA     BYTE      P4_OE
      00000090H   SFRSYM    DATA     BIT       GP10
      00000080H.1 SFRSYM    DATA     BIT       GP01
      000000A8H.6 SFRSYM    DATA     BIT       RTCIE
      000000A0H   SFRSYM    DATA     BIT       GP20
      00000090H.1 SFRSYM    DATA     BIT       GP11
      00000080H.2 SFRSYM    DATA     BIT       GP02
      000000B0H   SFRSYM    DATA     BIT       GP30
      000000A0H.1 SFRSYM    DATA     BIT       GP21
      00000090H.2 SFRSYM    DATA     BIT       GP12
      00000080H.3 SFRSYM    DATA     BIT       GP03
      000000D8H.2 SFRSYM    DATA     BIT       PI2C_UT10
      000000B8H   SFRSYM    DATA     BIT       PLVW0
      000000A8H.1 SFRSYM    DATA     BIT       TSDIE
      000000D0H   SFRSYM    DATA     BYTE      PSW
      000000B0H.1 SFRSYM    DATA     BIT       GP31
      000000A0H.2 SFRSYM    DATA     BIT       GP22
      00000090H.3 SFRSYM    DATA     BIT       GP13
      00000080H.4 SFRSYM    DATA     BIT       GP04
      000000D8H.3 SFRSYM    DATA     BIT       PI2C_UT11
      000000B8H.1 SFRSYM    DATA     BIT       PLVW1
      000000A8H.3 SFRSYM    DATA     BIT       SPIIE
      00000088H.5 SFRSYM    DATA     BIT       TSDIF
      000000B0H.2 SFRSYM    DATA     BIT       GP32
      000000A0H.3 SFRSYM    DATA     BIT       GP23
      00000090H.4 SFRSYM    DATA     BIT       GP14
      00000080H.5 SFRSYM    DATA     BIT       GP05
      000000E8H.2 SFRSYM    DATA     BIT       GP42
      000000B0H.3 SFRSYM    DATA     BIT       GP33
      000000A0H.4 SFRSYM    DATA     BIT       GP24
      00000090H.5 SFRSYM    DATA     BIT       GP15
      00000080H.6 SFRSYM    DATA     BIT       GP06
      00000088H   SFRSYM    DATA     BIT       IT00

      ---         MODULE    ---      ---       PLLFUNCTION
      00000008H   PUBLIC    DATA     ---       PLLfunction
      000000E8H.3 SFRSYM    DATA     BIT       GP43
      000000B0H.4 SFRSYM    DATA     BIT       GP34
      000000A0H.5 SFRSYM    DATA     BIT       GP25
      00000090H.6 SFRSYM    DATA     BIT       GP16
      00000080H.7 SFRSYM    DATA     BIT       GP07
      00000088H.1 SFRSYM    DATA     BIT       IT01
      00000088H.3 SFRSYM    DATA     BIT       IT10
      000000E8H.4 SFRSYM    DATA     BIT       GP44
      000000B0H.5 SFRSYM    DATA     BIT       GP35
      000000A0H.6 SFRSYM    DATA     BIT       GP26
LX51 LINKER/LOCATER V4.41                                                             01/15/2025  09:25:09  PAGE 59


      00000090H.7 SFRSYM    DATA     BIT       GP17
      00000080H   SFRSYM    DATA     BYTE      P0
      00000088H.4 SFRSYM    DATA     BIT       IT11
      000000C9H   SFRSYM    DATA     BYTE      RST_SR
      000000D9H   SFRSYM    DATA     BYTE      EVT_FILT
      000000E8H.5 SFRSYM    DATA     BIT       GP45
      000000B0H.6 SFRSYM    DATA     BIT       GP36
      000000A0H.7 SFRSYM    DATA     BIT       GP27
      00000090H   SFRSYM    DATA     BYTE      P1
      000000B0H.7 SFRSYM    DATA     BIT       GP37
      000000A0H   SFRSYM    DATA     BYTE      P2
      000000B0H   SFRSYM    DATA     BYTE      P3
      000000E8H   SFRSYM    DATA     BYTE      P4
      000000D0H.6 SFRSYM    DATA     BIT       AC
      000000A8H.7 SFRSYM    DATA     BIT       EA
      000000D5H   SFRSYM    DATA     BYTE      CMP_CR0
      000000D6H   SFRSYM    DATA     BYTE      CMP_CR1
      000000C6H   SFRSYM    DATA     WORD      MDU_A
      000000DAH   SFRSYM    DATA     BYTE      CMP_CR2
      000000C4H   SFRSYM    DATA     WORD      MDU_B
      000000B8H.2 SFRSYM    DATA     BIT       PX00
      000000DCH   SFRSYM    DATA     BYTE      CMP_CR3
      000000F8H   SFRSYM    DATA     BIT       OISUH
      000000C2H   SFRSYM    DATA     WORD      MDU_C
      000000B8H.3 SFRSYM    DATA     BIT       PX01
      000000B8H.4 SFRSYM    DATA     BIT       PX10
      000000E1H   SFRSYM    DATA     BYTE      CMP_CR4
      000000F8H.2 SFRSYM    DATA     BIT       OISVH
      000000CBH   SFRSYM    DATA     BYTE      MDU_D
      000000B8H.5 SFRSYM    DATA     BIT       PX11
      000000F8H.4 SFRSYM    DATA     BIT       OISWH
      000000F8H.1 SFRSYM    DATA     BIT       OISUL
      000000A8H   SFRSYM    DATA     BYTE      IE
      000000F8H.3 SFRSYM    DATA     BIT       OISVL
      000000F9H   SFRSYM    DATA     BYTE      PI_CR
      000000F8H.5 SFRSYM    DATA     BIT       OISWL
      000000D8H   SFRSYM    DATA     BIT       PCMP30
      000000AAH   SFRSYM    DATA     WORD      TIM2__CNTR
      000000D8H.1 SFRSYM    DATA     BIT       PCMP31
      000000A2H   SFRSYM    DATA     WORD      TIM3__CNTR
      00000092H   SFRSYM    DATA     WORD      TIM4__CNTR
      00000098H   SFRSYM    DATA     BIT       RI
      00000098H.6 SFRSYM    DATA     BIT       UT_MOD0
      00000098H.7 SFRSYM    DATA     BIT       UT_MOD1
      000000D0H.7 SFRSYM    DATA     BIT       CY
      00000098H.1 SFRSYM    DATA     BIT       TI
      000000C0H.2 SFRSYM    DATA     BIT       PTIM10
      00000084H   SFRSYM    DATA     BYTE      FLA_KEY
      000000C0H   SFRSYM    DATA     BIT       PTIM20
      000000C0H.3 SFRSYM    DATA     BIT       PTIM11
      00000098H   SFRSYM    DATA     BYTE      UT_CR
      000000C8H.2 SFRSYM    DATA     BIT       PTIM30
      000000C0H.1 SFRSYM    DATA     BIT       PTIM21
      00000099H   SFRSYM    DATA     BYTE      UT_DR
      000000C8H.3 SFRSYM    DATA     BIT       PTIM31
      000000D0H.2 SFRSYM    DATA     BIT       OV
      0000009AH   SFRSYM    DATA     WORD      UT_BAUD
      000000D8H.4 SFRSYM    DATA     BIT       PSPI_UT20
      000000D8H.5 SFRSYM    DATA     BIT       PSPI_UT21
      00000087H   SFRSYM    DATA     BYTE      PCON
      00000088H   SFRSYM    DATA     BYTE      TCON
      00000082H   SFRSYM    DATA     WORD      DPTR
      00000088H.2 SFRSYM    DATA     BIT       IF0
      000000AEH   SFRSYM    DATA     WORD      TIM2__ARR
      000000A1H   SFRSYM    DATA     BYTE      TIM2_CR0
LX51 LINKER/LOCATER V4.41                                                             01/15/2025  09:25:09  PAGE 60


      000000A6H   SFRSYM    DATA     WORD      TIM3__ARR
      0000009CH   SFRSYM    DATA     BYTE      TIM3_CR0
      000000A9H   SFRSYM    DATA     BYTE      TIM2_CR1
      00000096H   SFRSYM    DATA     WORD      TIM4__ARR
      0000009EH   SFRSYM    DATA     BYTE      TIM4_CR0
      0000009DH   SFRSYM    DATA     BYTE      TIM3_CR1
      000000F8H   SFRSYM    DATA     BYTE      DRV_OUT
      0000009FH   SFRSYM    DATA     BYTE      TIM4_CR1
      000000E0H   SFRSYM    DATA     BYTE      ACC
      000000DBH   SFRSYM    DATA     BYTE      LVSR
      000000A8H.4 SFRSYM    DATA     BIT       ES0
      00000085H   SFRSYM    DATA     BYTE      FLA_CR
      000000C0H.4 SFRSYM    DATA     BIT       PADC0
      000000B8H   SFRSYM    DATA     BYTE      IP0
      000000C0H.5 SFRSYM    DATA     BIT       PADC1
      000000C0H   SFRSYM    DATA     BYTE      IP1
      000000C8H   SFRSYM    DATA     BYTE      IP2
      00000098H.2 SFRSYM    DATA     BIT       RB8
      000000D8H   SFRSYM    DATA     BYTE      IP3
      000000A8H   SFRSYM    DATA     BIT       EX0
      00000098H.3 SFRSYM    DATA     BIT       TB8
      000000A8H.2 SFRSYM    DATA     BIT       EX1
      000000D0H   SFRSYM    DATA     BIT       P
      0000008AH   SFRSYM    DATA     BYTE      UT2_CR
      00000089H   SFRSYM    DATA     BYTE      UT2_DR
      00000098H.5 SFRSYM    DATA     BIT       SM2
      000000D8H.6 SFRSYM    DATA     BIT       PDMA0
      000000D8H.7 SFRSYM    DATA     BIT       PDMA1
      000000D0H.3 SFRSYM    DATA     BIT       RS0
      000000D0H.4 SFRSYM    DATA     BIT       RS1
      000000CAH   SFRSYM    DATA     BYTE      MDU_MD
      000000C1H   SFRSYM    DATA     BYTE      MDU_CR
      000000F8H.7 SFRSYM    DATA     BIT       MOE
      000000C0H.6 SFRSYM    DATA     BIT       PCMP0
      000000C0H.7 SFRSYM    DATA     BIT       PCMP1
      00000098H.4 SFRSYM    DATA     BIT       REN
      000000D7H   SFRSYM    DATA     BYTE      CMP_SR
      000000C8H   SFRSYM    DATA     BIT       PRTC0
      000000C8H.1 SFRSYM    DATA     BIT       PRTC1
      000000C8H.6 SFRSYM    DATA     BIT       PTSD0
      000000C8H.7 SFRSYM    DATA     BIT       PTSD1
      000000B8H.6 SFRSYM    DATA     BIT       PDRV0
      000000B8H.7 SFRSYM    DATA     BIT       PDRV1
      000000D1H   SFRSYM    DATA     BYTE      P1_IE
      000000D3H   SFRSYM    DATA     BYTE      P2_IE
      000000D2H   SFRSYM    DATA     BYTE      P1_IF
      000000D4H   SFRSYM    DATA     BYTE      P2_IF
      000000ACH   SFRSYM    DATA     WORD      TIM2__DR
      000000C8H.4 SFRSYM    DATA     BIT       PTIM4S0
      000000FCH   SFRSYM    DATA     BYTE      P0_OE
      000000A4H   SFRSYM    DATA     WORD      TIM3__DR
      000000C8H.5 SFRSYM    DATA     BIT       PTIM4S1
      000000FDH   SFRSYM    DATA     BYTE      P1_OE
      00000094H   SFRSYM    DATA     WORD      TIM4__DR
      000000D0H.5 SFRSYM    DATA     BIT       F0
      000000FEH   SFRSYM    DATA     BYTE      P2_OE
      000000D0H.1 SFRSYM    DATA     BIT       F1
      000000FFH   SFRSYM    DATA     BYTE      P3_OE
      00000080H   SFRSYM    DATA     BIT       GP00
      000000E9H   SFRSYM    DATA     BYTE      P4_OE
      00000090H   SFRSYM    DATA     BIT       GP10
      00000080H.1 SFRSYM    DATA     BIT       GP01
      000000A8H.6 SFRSYM    DATA     BIT       RTCIE
      000000A0H   SFRSYM    DATA     BIT       GP20
      00000090H.1 SFRSYM    DATA     BIT       GP11
LX51 LINKER/LOCATER V4.41                                                             01/15/2025  09:25:09  PAGE 61


      00000080H.2 SFRSYM    DATA     BIT       GP02
      000000B0H   SFRSYM    DATA     BIT       GP30
      000000A0H.1 SFRSYM    DATA     BIT       GP21
      00000090H.2 SFRSYM    DATA     BIT       GP12
      00000080H.3 SFRSYM    DATA     BIT       GP03
      000000D8H.2 SFRSYM    DATA     BIT       PI2C_UT10
      000000B8H   SFRSYM    DATA     BIT       PLVW0
      000000A8H.1 SFRSYM    DATA     BIT       TSDIE
      000000D0H   SFRSYM    DATA     BYTE      PSW
      000000B0H.1 SFRSYM    DATA     BIT       GP31
      000000A0H.2 SFRSYM    DATA     BIT       GP22
      00000090H.3 SFRSYM    DATA     BIT       GP13
      00000080H.4 SFRSYM    DATA     BIT       GP04
      000000D8H.3 SFRSYM    DATA     BIT       PI2C_UT11
      000000B8H.1 SFRSYM    DATA     BIT       PLVW1
      000000A8H.3 SFRSYM    DATA     BIT       SPIIE
      00000088H.5 SFRSYM    DATA     BIT       TSDIF
      000000B0H.2 SFRSYM    DATA     BIT       GP32
      000000A0H.3 SFRSYM    DATA     BIT       GP23
      00000090H.4 SFRSYM    DATA     BIT       GP14
      00000080H.5 SFRSYM    DATA     BIT       GP05
      000000E8H.2 SFRSYM    DATA     BIT       GP42
      000000B0H.3 SFRSYM    DATA     BIT       GP33
      000000A0H.4 SFRSYM    DATA     BIT       GP24
      00000090H.5 SFRSYM    DATA     BIT       GP15
      00000080H.6 SFRSYM    DATA     BIT       GP06
      00000088H   SFRSYM    DATA     BIT       IT00

      ---         MODULE    ---      ---       ADC
      0100298CH   PUBLIC    CODE     ---       ADC_Init
      000000E8H.3 SFRSYM    DATA     BIT       GP43
      000000B0H.4 SFRSYM    DATA     BIT       GP34
      000000A0H.5 SFRSYM    DATA     BIT       GP25
      00000090H.6 SFRSYM    DATA     BIT       GP16
      00000080H.7 SFRSYM    DATA     BIT       GP07
      00000088H.1 SFRSYM    DATA     BIT       IT01
      00000088H.3 SFRSYM    DATA     BIT       IT10
      000000E8H.4 SFRSYM    DATA     BIT       GP44
      000000B0H.5 SFRSYM    DATA     BIT       GP35
      000000A0H.6 SFRSYM    DATA     BIT       GP26
      00000090H.7 SFRSYM    DATA     BIT       GP17
      00000080H   SFRSYM    DATA     BYTE      P0
      00000088H.4 SFRSYM    DATA     BIT       IT11
      000000C9H   SFRSYM    DATA     BYTE      RST_SR
      000000D9H   SFRSYM    DATA     BYTE      EVT_FILT
      000000E8H.5 SFRSYM    DATA     BIT       GP45
      000000B0H.6 SFRSYM    DATA     BIT       GP36
      000000A0H.7 SFRSYM    DATA     BIT       GP27
      00000090H   SFRSYM    DATA     BYTE      P1
      000000B0H.7 SFRSYM    DATA     BIT       GP37
      000000A0H   SFRSYM    DATA     BYTE      P2
      000000B0H   SFRSYM    DATA     BYTE      P3
      000000E8H   SFRSYM    DATA     BYTE      P4
      000000D0H.6 SFRSYM    DATA     BIT       AC
      000000A8H.7 SFRSYM    DATA     BIT       EA
      000000D5H   SFRSYM    DATA     BYTE      CMP_CR0
      000000D6H   SFRSYM    DATA     BYTE      CMP_CR1
      000000C6H   SFRSYM    DATA     WORD      MDU_A
      000000DAH   SFRSYM    DATA     BYTE      CMP_CR2
      000000C4H   SFRSYM    DATA     WORD      MDU_B
      000000B8H.2 SFRSYM    DATA     BIT       PX00
      000000DCH   SFRSYM    DATA     BYTE      CMP_CR3
      000000F8H   SFRSYM    DATA     BIT       OISUH
      000000C2H   SFRSYM    DATA     WORD      MDU_C
      000000B8H.3 SFRSYM    DATA     BIT       PX01
LX51 LINKER/LOCATER V4.41                                                             01/15/2025  09:25:09  PAGE 62


      000000B8H.4 SFRSYM    DATA     BIT       PX10
      000000E1H   SFRSYM    DATA     BYTE      CMP_CR4
      000000F8H.2 SFRSYM    DATA     BIT       OISVH
      000000CBH   SFRSYM    DATA     BYTE      MDU_D
      000000B8H.5 SFRSYM    DATA     BIT       PX11
      000000F8H.4 SFRSYM    DATA     BIT       OISWH
      000000F8H.1 SFRSYM    DATA     BIT       OISUL
      000000A8H   SFRSYM    DATA     BYTE      IE
      000000F8H.3 SFRSYM    DATA     BIT       OISVL
      000000F9H   SFRSYM    DATA     BYTE      PI_CR
      000000F8H.5 SFRSYM    DATA     BIT       OISWL
      000000D8H   SFRSYM    DATA     BIT       PCMP30
      000000AAH   SFRSYM    DATA     WORD      TIM2__CNTR
      000000D8H.1 SFRSYM    DATA     BIT       PCMP31
      000000A2H   SFRSYM    DATA     WORD      TIM3__CNTR
      00000092H   SFRSYM    DATA     WORD      TIM4__CNTR
      00000098H   SFRSYM    DATA     BIT       RI
      00000098H.6 SFRSYM    DATA     BIT       UT_MOD0
      00000098H.7 SFRSYM    DATA     BIT       UT_MOD1
      000000D0H.7 SFRSYM    DATA     BIT       CY
      00000098H.1 SFRSYM    DATA     BIT       TI
      000000C0H.2 SFRSYM    DATA     BIT       PTIM10
      00000084H   SFRSYM    DATA     BYTE      FLA_KEY
      000000C0H   SFRSYM    DATA     BIT       PTIM20
      000000C0H.3 SFRSYM    DATA     BIT       PTIM11
      00000098H   SFRSYM    DATA     BYTE      UT_CR
      000000C8H.2 SFRSYM    DATA     BIT       PTIM30
      000000C0H.1 SFRSYM    DATA     BIT       PTIM21
      00000099H   SFRSYM    DATA     BYTE      UT_DR
      000000C8H.3 SFRSYM    DATA     BIT       PTIM31
      000000D0H.2 SFRSYM    DATA     BIT       OV
      0000009AH   SFRSYM    DATA     WORD      UT_BAUD
      000000D8H.4 SFRSYM    DATA     BIT       PSPI_UT20
      000000D8H.5 SFRSYM    DATA     BIT       PSPI_UT21
      00000087H   SFRSYM    DATA     BYTE      PCON
      00000088H   SFRSYM    DATA     BYTE      TCON
      00000082H   SFRSYM    DATA     WORD      DPTR
      00000088H.2 SFRSYM    DATA     BIT       IF0
      000000AEH   SFRSYM    DATA     WORD      TIM2__ARR
      000000A1H   SFRSYM    DATA     BYTE      TIM2_CR0
      000000A6H   SFRSYM    DATA     WORD      TIM3__ARR
      0000009CH   SFRSYM    DATA     BYTE      TIM3_CR0
      000000A9H   SFRSYM    DATA     BYTE      TIM2_CR1
      00000096H   SFRSYM    DATA     WORD      TIM4__ARR
      0000009EH   SFRSYM    DATA     BYTE      TIM4_CR0
      0000009DH   SFRSYM    DATA     BYTE      TIM3_CR1
      000000F8H   SFRSYM    DATA     BYTE      DRV_OUT
      0000009FH   SFRSYM    DATA     BYTE      TIM4_CR1
      000000E0H   SFRSYM    DATA     BYTE      ACC
      000000DBH   SFRSYM    DATA     BYTE      LVSR
      000000A8H.4 SFRSYM    DATA     BIT       ES0
      00000085H   SFRSYM    DATA     BYTE      FLA_CR
      000000C0H.4 SFRSYM    DATA     BIT       PADC0
      000000B8H   SFRSYM    DATA     BYTE      IP0
      000000C0H.5 SFRSYM    DATA     BIT       PADC1
      000000C0H   SFRSYM    DATA     BYTE      IP1
      000000C8H   SFRSYM    DATA     BYTE      IP2
      00000098H.2 SFRSYM    DATA     BIT       RB8
      000000D8H   SFRSYM    DATA     BYTE      IP3
      000000A8H   SFRSYM    DATA     BIT       EX0
      00000098H.3 SFRSYM    DATA     BIT       TB8
      000000A8H.2 SFRSYM    DATA     BIT       EX1
      000000D0H   SFRSYM    DATA     BIT       P
      0000008AH   SFRSYM    DATA     BYTE      UT2_CR
      00000089H   SFRSYM    DATA     BYTE      UT2_DR
LX51 LINKER/LOCATER V4.41                                                             01/15/2025  09:25:09  PAGE 63


      00000098H.5 SFRSYM    DATA     BIT       SM2
      000000D8H.6 SFRSYM    DATA     BIT       PDMA0
      000000D8H.7 SFRSYM    DATA     BIT       PDMA1
      000000D0H.3 SFRSYM    DATA     BIT       RS0
      000000D0H.4 SFRSYM    DATA     BIT       RS1
      000000CAH   SFRSYM    DATA     BYTE      MDU_MD
      000000C1H   SFRSYM    DATA     BYTE      MDU_CR
      000000F8H.7 SFRSYM    DATA     BIT       MOE
      000000C0H.6 SFRSYM    DATA     BIT       PCMP0
      000000C0H.7 SFRSYM    DATA     BIT       PCMP1
      00000098H.4 SFRSYM    DATA     BIT       REN
      000000D7H   SFRSYM    DATA     BYTE      CMP_SR
      000000C8H   SFRSYM    DATA     BIT       PRTC0
      000000C8H.1 SFRSYM    DATA     BIT       PRTC1
      000000C8H.6 SFRSYM    DATA     BIT       PTSD0
      000000C8H.7 SFRSYM    DATA     BIT       PTSD1
      000000B8H.6 SFRSYM    DATA     BIT       PDRV0
      000000B8H.7 SFRSYM    DATA     BIT       PDRV1
      000000D1H   SFRSYM    DATA     BYTE      P1_IE
      000000D3H   SFRSYM    DATA     BYTE      P2_IE
      000000D2H   SFRSYM    DATA     BYTE      P1_IF
      000000D4H   SFRSYM    DATA     BYTE      P2_IF
      000000ACH   SFRSYM    DATA     WORD      TIM2__DR
      000000C8H.4 SFRSYM    DATA     BIT       PTIM4S0
      000000FCH   SFRSYM    DATA     BYTE      P0_OE
      000000A4H   SFRSYM    DATA     WORD      TIM3__DR
      000000C8H.5 SFRSYM    DATA     BIT       PTIM4S1
      000000FDH   SFRSYM    DATA     BYTE      P1_OE
      00000094H   SFRSYM    DATA     WORD      TIM4__DR
      000000D0H.5 SFRSYM    DATA     BIT       F0
      000000FEH   SFRSYM    DATA     BYTE      P2_OE
      000000D0H.1 SFRSYM    DATA     BIT       F1
      000000FFH   SFRSYM    DATA     BYTE      P3_OE
      00000080H   SFRSYM    DATA     BIT       GP00
      000000E9H   SFRSYM    DATA     BYTE      P4_OE
      00000090H   SFRSYM    DATA     BIT       GP10
      00000080H.1 SFRSYM    DATA     BIT       GP01
      000000A8H.6 SFRSYM    DATA     BIT       RTCIE
      000000A0H   SFRSYM    DATA     BIT       GP20
      00000090H.1 SFRSYM    DATA     BIT       GP11
      00000080H.2 SFRSYM    DATA     BIT       GP02
      000000B0H   SFRSYM    DATA     BIT       GP30
      000000A0H.1 SFRSYM    DATA     BIT       GP21
      00000090H.2 SFRSYM    DATA     BIT       GP12
      00000080H.3 SFRSYM    DATA     BIT       GP03
      000000D8H.2 SFRSYM    DATA     BIT       PI2C_UT10
      000000B8H   SFRSYM    DATA     BIT       PLVW0
      000000A8H.1 SFRSYM    DATA     BIT       TSDIE
      000000D0H   SFRSYM    DATA     BYTE      PSW
      000000B0H.1 SFRSYM    DATA     BIT       GP31
      000000A0H.2 SFRSYM    DATA     BIT       GP22
      00000090H.3 SFRSYM    DATA     BIT       GP13
      00000080H.4 SFRSYM    DATA     BIT       GP04
      000000D8H.3 SFRSYM    DATA     BIT       PI2C_UT11
      000000B8H.1 SFRSYM    DATA     BIT       PLVW1
      000000A8H.3 SFRSYM    DATA     BIT       SPIIE
      00000088H.5 SFRSYM    DATA     BIT       TSDIF
      000000B0H.2 SFRSYM    DATA     BIT       GP32
      000000A0H.3 SFRSYM    DATA     BIT       GP23
      00000090H.4 SFRSYM    DATA     BIT       GP14
      00000080H.5 SFRSYM    DATA     BIT       GP05
      000000E8H.2 SFRSYM    DATA     BIT       GP42
      000000B0H.3 SFRSYM    DATA     BIT       GP33
      000000A0H.4 SFRSYM    DATA     BIT       GP24
      00000090H.5 SFRSYM    DATA     BIT       GP15
LX51 LINKER/LOCATER V4.41                                                             01/15/2025  09:25:09  PAGE 64


      00000080H.6 SFRSYM    DATA     BIT       GP06
      00000088H   SFRSYM    DATA     BIT       IT00

      0100298CH   BLOCK     CODE     ---       LVL=0
      0100298CH   LINE      CODE     ---       #18
      0100298CH   LINE      CODE     ---       #19
      0100298CH   LINE      CODE     ---       #20
      01002993H   LINE      CODE     ---       #21
      01002997H   LINE      CODE     ---       #22
      0100299BH   LINE      CODE     ---       #23
      0100299FH   LINE      CODE     ---       #24
      010029A3H   LINE      CODE     ---       #33
      010029BBH   LINE      CODE     ---       #36
      010029BBH   LINE      CODE     ---       #42
      010029BBH   LINE      CODE     ---       #43
      010029C2H   LINE      CODE     ---       #44
      010029C2H   LINE      CODE     ---       #46
      010029C2H   LINE      CODE     ---       #49
      010029C6H   LINE      CODE     ---       #50
      010029CAH   LINE      CODE     ---       #51
      010029CEH   LINE      CODE     ---       #52
      ---         BLOCKEND  ---      ---       LVL=0

      ---         MODULE    ---      ---       AMP
      01002BD1H   PUBLIC    CODE     ---       AMP_Init
      000000E8H.3 SFRSYM    DATA     BIT       GP43
      000000B0H.4 SFRSYM    DATA     BIT       GP34
      000000A0H.5 SFRSYM    DATA     BIT       GP25
      00000090H.6 SFRSYM    DATA     BIT       GP16
      00000080H.7 SFRSYM    DATA     BIT       GP07
      00000088H.1 SFRSYM    DATA     BIT       IT01
      00000088H.3 SFRSYM    DATA     BIT       IT10
      000000E8H.4 SFRSYM    DATA     BIT       GP44
      000000B0H.5 SFRSYM    DATA     BIT       GP35
      000000A0H.6 SFRSYM    DATA     BIT       GP26
      00000090H.7 SFRSYM    DATA     BIT       GP17
      00000080H   SFRSYM    DATA     BYTE      P0
      00000088H.4 SFRSYM    DATA     BIT       IT11
      000000C9H   SFRSYM    DATA     BYTE      RST_SR
      000000D9H   SFRSYM    DATA     BYTE      EVT_FILT
      000000E8H.5 SFRSYM    DATA     BIT       GP45
      000000B0H.6 SFRSYM    DATA     BIT       GP36
      000000A0H.7 SFRSYM    DATA     BIT       GP27
      00000090H   SFRSYM    DATA     BYTE      P1
      000000B0H.7 SFRSYM    DATA     BIT       GP37
      000000A0H   SFRSYM    DATA     BYTE      P2
      000000B0H   SFRSYM    DATA     BYTE      P3
      000000E8H   SFRSYM    DATA     BYTE      P4
      000000D0H.6 SFRSYM    DATA     BIT       AC
      000000A8H.7 SFRSYM    DATA     BIT       EA
      000000D5H   SFRSYM    DATA     BYTE      CMP_CR0
      000000D6H   SFRSYM    DATA     BYTE      CMP_CR1
      000000C6H   SFRSYM    DATA     WORD      MDU_A
      000000DAH   SFRSYM    DATA     BYTE      CMP_CR2
      000000C4H   SFRSYM    DATA     WORD      MDU_B
      000000B8H.2 SFRSYM    DATA     BIT       PX00
      000000DCH   SFRSYM    DATA     BYTE      CMP_CR3
      000000F8H   SFRSYM    DATA     BIT       OISUH
      000000C2H   SFRSYM    DATA     WORD      MDU_C
      000000B8H.3 SFRSYM    DATA     BIT       PX01
      000000B8H.4 SFRSYM    DATA     BIT       PX10
      000000E1H   SFRSYM    DATA     BYTE      CMP_CR4
      000000F8H.2 SFRSYM    DATA     BIT       OISVH
      000000CBH   SFRSYM    DATA     BYTE      MDU_D
      000000B8H.5 SFRSYM    DATA     BIT       PX11
LX51 LINKER/LOCATER V4.41                                                             01/15/2025  09:25:09  PAGE 65


      000000F8H.4 SFRSYM    DATA     BIT       OISWH
      000000F8H.1 SFRSYM    DATA     BIT       OISUL
      000000A8H   SFRSYM    DATA     BYTE      IE
      000000F8H.3 SFRSYM    DATA     BIT       OISVL
      000000F9H   SFRSYM    DATA     BYTE      PI_CR
      000000F8H.5 SFRSYM    DATA     BIT       OISWL
      000000D8H   SFRSYM    DATA     BIT       PCMP30
      000000AAH   SFRSYM    DATA     WORD      TIM2__CNTR
      000000D8H.1 SFRSYM    DATA     BIT       PCMP31
      000000A2H   SFRSYM    DATA     WORD      TIM3__CNTR
      00000092H   SFRSYM    DATA     WORD      TIM4__CNTR
      00000098H   SFRSYM    DATA     BIT       RI
      00000098H.6 SFRSYM    DATA     BIT       UT_MOD0
      00000098H.7 SFRSYM    DATA     BIT       UT_MOD1
      000000D0H.7 SFRSYM    DATA     BIT       CY
      00000098H.1 SFRSYM    DATA     BIT       TI
      000000C0H.2 SFRSYM    DATA     BIT       PTIM10
      00000084H   SFRSYM    DATA     BYTE      FLA_KEY
      000000C0H   SFRSYM    DATA     BIT       PTIM20
      000000C0H.3 SFRSYM    DATA     BIT       PTIM11
      00000098H   SFRSYM    DATA     BYTE      UT_CR
      000000C8H.2 SFRSYM    DATA     BIT       PTIM30
      000000C0H.1 SFRSYM    DATA     BIT       PTIM21
      00000099H   SFRSYM    DATA     BYTE      UT_DR
      000000C8H.3 SFRSYM    DATA     BIT       PTIM31
      000000D0H.2 SFRSYM    DATA     BIT       OV
      0000009AH   SFRSYM    DATA     WORD      UT_BAUD
      000000D8H.4 SFRSYM    DATA     BIT       PSPI_UT20
      000000D8H.5 SFRSYM    DATA     BIT       PSPI_UT21
      00000087H   SFRSYM    DATA     BYTE      PCON
      00000088H   SFRSYM    DATA     BYTE      TCON
      00000082H   SFRSYM    DATA     WORD      DPTR
      00000088H.2 SFRSYM    DATA     BIT       IF0
      000000AEH   SFRSYM    DATA     WORD      TIM2__ARR
      000000A1H   SFRSYM    DATA     BYTE      TIM2_CR0
      000000A6H   SFRSYM    DATA     WORD      TIM3__ARR
      0000009CH   SFRSYM    DATA     BYTE      TIM3_CR0
      000000A9H   SFRSYM    DATA     BYTE      TIM2_CR1
      00000096H   SFRSYM    DATA     WORD      TIM4__ARR
      0000009EH   SFRSYM    DATA     BYTE      TIM4_CR0
      0000009DH   SFRSYM    DATA     BYTE      TIM3_CR1
      000000F8H   SFRSYM    DATA     BYTE      DRV_OUT
      0000009FH   SFRSYM    DATA     BYTE      TIM4_CR1
      000000E0H   SFRSYM    DATA     BYTE      ACC
      000000DBH   SFRSYM    DATA     BYTE      LVSR
      000000A8H.4 SFRSYM    DATA     BIT       ES0
      00000085H   SFRSYM    DATA     BYTE      FLA_CR
      000000C0H.4 SFRSYM    DATA     BIT       PADC0
      000000B8H   SFRSYM    DATA     BYTE      IP0
      000000C0H.5 SFRSYM    DATA     BIT       PADC1
      000000C0H   SFRSYM    DATA     BYTE      IP1
      000000C8H   SFRSYM    DATA     BYTE      IP2
      00000098H.2 SFRSYM    DATA     BIT       RB8
      000000D8H   SFRSYM    DATA     BYTE      IP3
      000000A8H   SFRSYM    DATA     BIT       EX0
      00000098H.3 SFRSYM    DATA     BIT       TB8
      000000A8H.2 SFRSYM    DATA     BIT       EX1
      000000D0H   SFRSYM    DATA     BIT       P
      0000008AH   SFRSYM    DATA     BYTE      UT2_CR
      00000089H   SFRSYM    DATA     BYTE      UT2_DR
      00000098H.5 SFRSYM    DATA     BIT       SM2
      000000D8H.6 SFRSYM    DATA     BIT       PDMA0
      000000D8H.7 SFRSYM    DATA     BIT       PDMA1
      000000D0H.3 SFRSYM    DATA     BIT       RS0
      000000D0H.4 SFRSYM    DATA     BIT       RS1
LX51 LINKER/LOCATER V4.41                                                             01/15/2025  09:25:09  PAGE 66


      000000CAH   SFRSYM    DATA     BYTE      MDU_MD
      000000C1H   SFRSYM    DATA     BYTE      MDU_CR
      000000F8H.7 SFRSYM    DATA     BIT       MOE
      000000C0H.6 SFRSYM    DATA     BIT       PCMP0
      000000C0H.7 SFRSYM    DATA     BIT       PCMP1
      00000098H.4 SFRSYM    DATA     BIT       REN
      000000D7H   SFRSYM    DATA     BYTE      CMP_SR
      000000C8H   SFRSYM    DATA     BIT       PRTC0
      000000C8H.1 SFRSYM    DATA     BIT       PRTC1
      000000C8H.6 SFRSYM    DATA     BIT       PTSD0
      000000C8H.7 SFRSYM    DATA     BIT       PTSD1
      000000B8H.6 SFRSYM    DATA     BIT       PDRV0
      000000B8H.7 SFRSYM    DATA     BIT       PDRV1
      000000D1H   SFRSYM    DATA     BYTE      P1_IE
      000000D3H   SFRSYM    DATA     BYTE      P2_IE
      000000D2H   SFRSYM    DATA     BYTE      P1_IF
      000000D4H   SFRSYM    DATA     BYTE      P2_IF
      000000ACH   SFRSYM    DATA     WORD      TIM2__DR
      000000C8H.4 SFRSYM    DATA     BIT       PTIM4S0
      000000FCH   SFRSYM    DATA     BYTE      P0_OE
      000000A4H   SFRSYM    DATA     WORD      TIM3__DR
      000000C8H.5 SFRSYM    DATA     BIT       PTIM4S1
      000000FDH   SFRSYM    DATA     BYTE      P1_OE
      00000094H   SFRSYM    DATA     WORD      TIM4__DR
      000000D0H.5 SFRSYM    DATA     BIT       F0
      000000FEH   SFRSYM    DATA     BYTE      P2_OE
      000000D0H.1 SFRSYM    DATA     BIT       F1
      000000FFH   SFRSYM    DATA     BYTE      P3_OE
      00000080H   SFRSYM    DATA     BIT       GP00
      000000E9H   SFRSYM    DATA     BYTE      P4_OE
      00000090H   SFRSYM    DATA     BIT       GP10
      00000080H.1 SFRSYM    DATA     BIT       GP01
      000000A8H.6 SFRSYM    DATA     BIT       RTCIE
      000000A0H   SFRSYM    DATA     BIT       GP20
      00000090H.1 SFRSYM    DATA     BIT       GP11
      00000080H.2 SFRSYM    DATA     BIT       GP02
      000000B0H   SFRSYM    DATA     BIT       GP30
      000000A0H.1 SFRSYM    DATA     BIT       GP21
      00000090H.2 SFRSYM    DATA     BIT       GP12
      00000080H.3 SFRSYM    DATA     BIT       GP03
      000000D8H.2 SFRSYM    DATA     BIT       PI2C_UT10
      000000B8H   SFRSYM    DATA     BIT       PLVW0
      000000A8H.1 SFRSYM    DATA     BIT       TSDIE
      000000D0H   SFRSYM    DATA     BYTE      PSW
      000000B0H.1 SFRSYM    DATA     BIT       GP31
      000000A0H.2 SFRSYM    DATA     BIT       GP22
      00000090H.3 SFRSYM    DATA     BIT       GP13
      00000080H.4 SFRSYM    DATA     BIT       GP04
      000000D8H.3 SFRSYM    DATA     BIT       PI2C_UT11
      000000B8H.1 SFRSYM    DATA     BIT       PLVW1
      000000A8H.3 SFRSYM    DATA     BIT       SPIIE
      00000088H.5 SFRSYM    DATA     BIT       TSDIF
      000000B0H.2 SFRSYM    DATA     BIT       GP32
      000000A0H.3 SFRSYM    DATA     BIT       GP23
      00000090H.4 SFRSYM    DATA     BIT       GP14
      00000080H.5 SFRSYM    DATA     BIT       GP05
      000000E8H.2 SFRSYM    DATA     BIT       GP42
      000000B0H.3 SFRSYM    DATA     BIT       GP33
      000000A0H.4 SFRSYM    DATA     BIT       GP24
      00000090H.5 SFRSYM    DATA     BIT       GP15
      00000080H.6 SFRSYM    DATA     BIT       GP06
      00000088H   SFRSYM    DATA     BIT       IT00

      01002BD1H   BLOCK     CODE     ---       LVL=0
      01002BD1H   LINE      CODE     ---       #20
LX51 LINKER/LOCATER V4.41                                                             01/15/2025  09:25:09  PAGE 67


      01002BD1H   LINE      CODE     ---       #21
      01002BD1H   LINE      CODE     ---       #23
      01002BD1H   LINE      CODE     ---       #24
      01002BD8H   LINE      CODE     ---       #25
      01002BDCH   LINE      CODE     ---       #26
      01002BE3H   LINE      CODE     ---       #29
      01002BE3H   LINE      CODE     ---       #30
      01002BECH   LINE      CODE     ---       #31
      01002BECH   LINE      CODE     ---       #38
      01002BF3H   LINE      CODE     ---       #39
      01002BF3H   LINE      CODE     ---       #70
      ---         BLOCKEND  ---      ---       LVL=0

      ---         MODULE    ---      ---       CMP
      01002C9BH   PUBLIC    CODE     ---       CMP3_Interrupt_Init
      01002A48H   PUBLIC    CODE     ---       CMP3_Init
      000000E8H.3 SFRSYM    DATA     BIT       GP43
      000000B0H.4 SFRSYM    DATA     BIT       GP34
      000000A0H.5 SFRSYM    DATA     BIT       GP25
      00000090H.6 SFRSYM    DATA     BIT       GP16
      00000080H.7 SFRSYM    DATA     BIT       GP07
      00000088H.1 SFRSYM    DATA     BIT       IT01
      00000088H.3 SFRSYM    DATA     BIT       IT10
      000000E8H.4 SFRSYM    DATA     BIT       GP44
      000000B0H.5 SFRSYM    DATA     BIT       GP35
      000000A0H.6 SFRSYM    DATA     BIT       GP26
      00000090H.7 SFRSYM    DATA     BIT       GP17
      00000080H   SFRSYM    DATA     BYTE      P0
      00000088H.4 SFRSYM    DATA     BIT       IT11
      000000C9H   SFRSYM    DATA     BYTE      RST_SR
      000000D9H   SFRSYM    DATA     BYTE      EVT_FILT
      000000E8H.5 SFRSYM    DATA     BIT       GP45
      000000B0H.6 SFRSYM    DATA     BIT       GP36
      000000A0H.7 SFRSYM    DATA     BIT       GP27
      00000090H   SFRSYM    DATA     BYTE      P1
      000000B0H.7 SFRSYM    DATA     BIT       GP37
      000000A0H   SFRSYM    DATA     BYTE      P2
      000000B0H   SFRSYM    DATA     BYTE      P3
      000000E8H   SFRSYM    DATA     BYTE      P4
      000000D0H.6 SFRSYM    DATA     BIT       AC
      000000A8H.7 SFRSYM    DATA     BIT       EA
      000000D5H   SFRSYM    DATA     BYTE      CMP_CR0
      000000D6H   SFRSYM    DATA     BYTE      CMP_CR1
      000000C6H   SFRSYM    DATA     WORD      MDU_A
      000000DAH   SFRSYM    DATA     BYTE      CMP_CR2
      000000C4H   SFRSYM    DATA     WORD      MDU_B
      000000B8H.2 SFRSYM    DATA     BIT       PX00
      000000DCH   SFRSYM    DATA     BYTE      CMP_CR3
      000000F8H   SFRSYM    DATA     BIT       OISUH
      000000C2H   SFRSYM    DATA     WORD      MDU_C
      000000B8H.3 SFRSYM    DATA     BIT       PX01
      000000B8H.4 SFRSYM    DATA     BIT       PX10
      000000E1H   SFRSYM    DATA     BYTE      CMP_CR4
      000000F8H.2 SFRSYM    DATA     BIT       OISVH
      000000CBH   SFRSYM    DATA     BYTE      MDU_D
      000000B8H.5 SFRSYM    DATA     BIT       PX11
      000000F8H.4 SFRSYM    DATA     BIT       OISWH
      000000F8H.1 SFRSYM    DATA     BIT       OISUL
      000000A8H   SFRSYM    DATA     BYTE      IE
      000000F8H.3 SFRSYM    DATA     BIT       OISVL
      000000F9H   SFRSYM    DATA     BYTE      PI_CR
      000000F8H.5 SFRSYM    DATA     BIT       OISWL
      000000D8H   SFRSYM    DATA     BIT       PCMP30
      000000AAH   SFRSYM    DATA     WORD      TIM2__CNTR
      000000D8H.1 SFRSYM    DATA     BIT       PCMP31
LX51 LINKER/LOCATER V4.41                                                             01/15/2025  09:25:09  PAGE 68


      000000A2H   SFRSYM    DATA     WORD      TIM3__CNTR
      00000092H   SFRSYM    DATA     WORD      TIM4__CNTR
      00000098H   SFRSYM    DATA     BIT       RI
      00000098H.6 SFRSYM    DATA     BIT       UT_MOD0
      00000098H.7 SFRSYM    DATA     BIT       UT_MOD1
      000000D0H.7 SFRSYM    DATA     BIT       CY
      00000098H.1 SFRSYM    DATA     BIT       TI
      000000C0H.2 SFRSYM    DATA     BIT       PTIM10
      00000084H   SFRSYM    DATA     BYTE      FLA_KEY
      000000C0H   SFRSYM    DATA     BIT       PTIM20
      000000C0H.3 SFRSYM    DATA     BIT       PTIM11
      00000098H   SFRSYM    DATA     BYTE      UT_CR
      000000C8H.2 SFRSYM    DATA     BIT       PTIM30
      000000C0H.1 SFRSYM    DATA     BIT       PTIM21
      00000099H   SFRSYM    DATA     BYTE      UT_DR
      000000C8H.3 SFRSYM    DATA     BIT       PTIM31
      000000D0H.2 SFRSYM    DATA     BIT       OV
      0000009AH   SFRSYM    DATA     WORD      UT_BAUD
      000000D8H.4 SFRSYM    DATA     BIT       PSPI_UT20
      000000D8H.5 SFRSYM    DATA     BIT       PSPI_UT21
      00000087H   SFRSYM    DATA     BYTE      PCON
      00000088H   SFRSYM    DATA     BYTE      TCON
      00000082H   SFRSYM    DATA     WORD      DPTR
      00000088H.2 SFRSYM    DATA     BIT       IF0
      000000AEH   SFRSYM    DATA     WORD      TIM2__ARR
      000000A1H   SFRSYM    DATA     BYTE      TIM2_CR0
      000000A6H   SFRSYM    DATA     WORD      TIM3__ARR
      0000009CH   SFRSYM    DATA     BYTE      TIM3_CR0
      000000A9H   SFRSYM    DATA     BYTE      TIM2_CR1
      00000096H   SFRSYM    DATA     WORD      TIM4__ARR
      0000009EH   SFRSYM    DATA     BYTE      TIM4_CR0
      0000009DH   SFRSYM    DATA     BYTE      TIM3_CR1
      000000F8H   SFRSYM    DATA     BYTE      DRV_OUT
      0000009FH   SFRSYM    DATA     BYTE      TIM4_CR1
      000000E0H   SFRSYM    DATA     BYTE      ACC
      000000DBH   SFRSYM    DATA     BYTE      LVSR
      000000A8H.4 SFRSYM    DATA     BIT       ES0
      00000085H   SFRSYM    DATA     BYTE      FLA_CR
      000000C0H.4 SFRSYM    DATA     BIT       PADC0
      000000B8H   SFRSYM    DATA     BYTE      IP0
      000000C0H.5 SFRSYM    DATA     BIT       PADC1
      000000C0H   SFRSYM    DATA     BYTE      IP1
      000000C8H   SFRSYM    DATA     BYTE      IP2
      00000098H.2 SFRSYM    DATA     BIT       RB8
      000000D8H   SFRSYM    DATA     BYTE      IP3
      000000A8H   SFRSYM    DATA     BIT       EX0
      00000098H.3 SFRSYM    DATA     BIT       TB8
      000000A8H.2 SFRSYM    DATA     BIT       EX1
      000000D0H   SFRSYM    DATA     BIT       P
      0000008AH   SFRSYM    DATA     BYTE      UT2_CR
      00000089H   SFRSYM    DATA     BYTE      UT2_DR
      00000098H.5 SFRSYM    DATA     BIT       SM2
      000000D8H.6 SFRSYM    DATA     BIT       PDMA0
      000000D8H.7 SFRSYM    DATA     BIT       PDMA1
      000000D0H.3 SFRSYM    DATA     BIT       RS0
      000000D0H.4 SFRSYM    DATA     BIT       RS1
      000000CAH   SFRSYM    DATA     BYTE      MDU_MD
      000000C1H   SFRSYM    DATA     BYTE      MDU_CR
      000000F8H.7 SFRSYM    DATA     BIT       MOE
      000000C0H.6 SFRSYM    DATA     BIT       PCMP0
      000000C0H.7 SFRSYM    DATA     BIT       PCMP1
      00000098H.4 SFRSYM    DATA     BIT       REN
      000000D7H   SFRSYM    DATA     BYTE      CMP_SR
      000000C8H   SFRSYM    DATA     BIT       PRTC0
      000000C8H.1 SFRSYM    DATA     BIT       PRTC1
LX51 LINKER/LOCATER V4.41                                                             01/15/2025  09:25:09  PAGE 69


      000000C8H.6 SFRSYM    DATA     BIT       PTSD0
      000000C8H.7 SFRSYM    DATA     BIT       PTSD1
      000000B8H.6 SFRSYM    DATA     BIT       PDRV0
      000000B8H.7 SFRSYM    DATA     BIT       PDRV1
      000000D1H   SFRSYM    DATA     BYTE      P1_IE
      000000D3H   SFRSYM    DATA     BYTE      P2_IE
      000000D2H   SFRSYM    DATA     BYTE      P1_IF
      000000D4H   SFRSYM    DATA     BYTE      P2_IF
      000000ACH   SFRSYM    DATA     WORD      TIM2__DR
      000000C8H.4 SFRSYM    DATA     BIT       PTIM4S0
      000000FCH   SFRSYM    DATA     BYTE      P0_OE
      000000A4H   SFRSYM    DATA     WORD      TIM3__DR
      000000C8H.5 SFRSYM    DATA     BIT       PTIM4S1
      000000FDH   SFRSYM    DATA     BYTE      P1_OE
      00000094H   SFRSYM    DATA     WORD      TIM4__DR
      000000D0H.5 SFRSYM    DATA     BIT       F0
      000000FEH   SFRSYM    DATA     BYTE      P2_OE
      000000D0H.1 SFRSYM    DATA     BIT       F1
      000000FFH   SFRSYM    DATA     BYTE      P3_OE
      00000080H   SFRSYM    DATA     BIT       GP00
      000000E9H   SFRSYM    DATA     BYTE      P4_OE
      00000090H   SFRSYM    DATA     BIT       GP10
      00000080H.1 SFRSYM    DATA     BIT       GP01
      000000A8H.6 SFRSYM    DATA     BIT       RTCIE
      000000A0H   SFRSYM    DATA     BIT       GP20
      00000090H.1 SFRSYM    DATA     BIT       GP11
      00000080H.2 SFRSYM    DATA     BIT       GP02
      000000B0H   SFRSYM    DATA     BIT       GP30
      000000A0H.1 SFRSYM    DATA     BIT       GP21
      00000090H.2 SFRSYM    DATA     BIT       GP12
      00000080H.3 SFRSYM    DATA     BIT       GP03
      000000D8H.2 SFRSYM    DATA     BIT       PI2C_UT10
      000000B8H   SFRSYM    DATA     BIT       PLVW0
      000000A8H.1 SFRSYM    DATA     BIT       TSDIE
      000000D0H   SFRSYM    DATA     BYTE      PSW
      000000B0H.1 SFRSYM    DATA     BIT       GP31
      000000A0H.2 SFRSYM    DATA     BIT       GP22
      00000090H.3 SFRSYM    DATA     BIT       GP13
      00000080H.4 SFRSYM    DATA     BIT       GP04
      000000D8H.3 SFRSYM    DATA     BIT       PI2C_UT11
      000000B8H.1 SFRSYM    DATA     BIT       PLVW1
      000000A8H.3 SFRSYM    DATA     BIT       SPIIE
      00000088H.5 SFRSYM    DATA     BIT       TSDIF
      000000B0H.2 SFRSYM    DATA     BIT       GP32
      000000A0H.3 SFRSYM    DATA     BIT       GP23
      00000090H.4 SFRSYM    DATA     BIT       GP14
      00000080H.5 SFRSYM    DATA     BIT       GP05
      000000E8H.2 SFRSYM    DATA     BIT       GP42
      000000B0H.3 SFRSYM    DATA     BIT       GP33
      000000A0H.4 SFRSYM    DATA     BIT       GP24
      00000090H.5 SFRSYM    DATA     BIT       GP15
      00000080H.6 SFRSYM    DATA     BIT       GP06
      00000088H   SFRSYM    DATA     BIT       IT00

      01002A48H   BLOCK     CODE     ---       LVL=0
      01002A48H   LINE      CODE     ---       #76
      01002A48H   LINE      CODE     ---       #77
      01002A48H   LINE      CODE     ---       #79
      01002A48H   LINE      CODE     ---       #80
      01002A4FH   LINE      CODE     ---       #81
      01002A52H   LINE      CODE     ---       #82
      01002A55H   LINE      CODE     ---       #83
      01002A55H   LINE      CODE     ---       #100
      01002A55H   LINE      CODE     ---       #101
      01002A5CH   LINE      CODE     ---       #102
LX51 LINKER/LOCATER V4.41                                                             01/15/2025  09:25:09  PAGE 70


      01002A62H   LINE      CODE     ---       #104
      01002A69H   LINE      CODE     ---       #105
      01002A69H   LINE      CODE     ---       #108
      01002A6CH   LINE      CODE     ---       #113
      01002A6FH   LINE      CODE     ---       #119
      01002A72H   LINE      CODE     ---       #120
      01002A75H   LINE      CODE     ---       #128
      01002A78H   LINE      CODE     ---       #129
      01002A7BH   LINE      CODE     ---       #131
      01002A7EH   LINE      CODE     ---       #132
      ---         BLOCKEND  ---      ---       LVL=0

      01002C9BH   BLOCK     CODE     ---       LVL=0
      01002C9BH   LINE      CODE     ---       #140
      01002C9BH   LINE      CODE     ---       #141
      01002C9BH   LINE      CODE     ---       #142
      01002C9EH   LINE      CODE     ---       #150
      01002CA1H   LINE      CODE     ---       #151
      01002CA4H   LINE      CODE     ---       #153
      01002CA6H   LINE      CODE     ---       #154
      01002CA8H   LINE      CODE     ---       #155
      ---         BLOCKEND  ---      ---       LVL=0

      ---         MODULE    ---      ---       DRIVER
      01002743H   PUBLIC    CODE     ---       Driver_Init
      000000E8H.3 SFRSYM    DATA     BIT       GP43
      000000B0H.4 SFRSYM    DATA     BIT       GP34
      000000A0H.5 SFRSYM    DATA     BIT       GP25
      00000090H.6 SFRSYM    DATA     BIT       GP16
      00000080H.7 SFRSYM    DATA     BIT       GP07
      00000088H.1 SFRSYM    DATA     BIT       IT01
      00000088H.3 SFRSYM    DATA     BIT       IT10
      000000E8H.4 SFRSYM    DATA     BIT       GP44
      000000B0H.5 SFRSYM    DATA     BIT       GP35
      000000A0H.6 SFRSYM    DATA     BIT       GP26
      00000090H.7 SFRSYM    DATA     BIT       GP17
      00000080H   SFRSYM    DATA     BYTE      P0
      00000088H.4 SFRSYM    DATA     BIT       IT11
      000000C9H   SFRSYM    DATA     BYTE      RST_SR
      000000D9H   SFRSYM    DATA     BYTE      EVT_FILT
      000000E8H.5 SFRSYM    DATA     BIT       GP45
      000000B0H.6 SFRSYM    DATA     BIT       GP36
      000000A0H.7 SFRSYM    DATA     BIT       GP27
      00000090H   SFRSYM    DATA     BYTE      P1
      000000B0H.7 SFRSYM    DATA     BIT       GP37
      000000A0H   SFRSYM    DATA     BYTE      P2
      000000B0H   SFRSYM    DATA     BYTE      P3
      000000E8H   SFRSYM    DATA     BYTE      P4
      000000D0H.6 SFRSYM    DATA     BIT       AC
      000000A8H.7 SFRSYM    DATA     BIT       EA
      000000D5H   SFRSYM    DATA     BYTE      CMP_CR0
      000000D6H   SFRSYM    DATA     BYTE      CMP_CR1
      000000C6H   SFRSYM    DATA     WORD      MDU_A
      000000DAH   SFRSYM    DATA     BYTE      CMP_CR2
      000000C4H   SFRSYM    DATA     WORD      MDU_B
      000000B8H.2 SFRSYM    DATA     BIT       PX00
      000000DCH   SFRSYM    DATA     BYTE      CMP_CR3
      000000F8H   SFRSYM    DATA     BIT       OISUH
      000000C2H   SFRSYM    DATA     WORD      MDU_C
      000000B8H.3 SFRSYM    DATA     BIT       PX01
      000000B8H.4 SFRSYM    DATA     BIT       PX10
      000000E1H   SFRSYM    DATA     BYTE      CMP_CR4
      000000F8H.2 SFRSYM    DATA     BIT       OISVH
      000000CBH   SFRSYM    DATA     BYTE      MDU_D
      000000B8H.5 SFRSYM    DATA     BIT       PX11
LX51 LINKER/LOCATER V4.41                                                             01/15/2025  09:25:09  PAGE 71


      000000F8H.4 SFRSYM    DATA     BIT       OISWH
      000000F8H.1 SFRSYM    DATA     BIT       OISUL
      000000A8H   SFRSYM    DATA     BYTE      IE
      000000F8H.3 SFRSYM    DATA     BIT       OISVL
      000000F9H   SFRSYM    DATA     BYTE      PI_CR
      000000F8H.5 SFRSYM    DATA     BIT       OISWL
      000000D8H   SFRSYM    DATA     BIT       PCMP30
      000000AAH   SFRSYM    DATA     WORD      TIM2__CNTR
      000000D8H.1 SFRSYM    DATA     BIT       PCMP31
      000000A2H   SFRSYM    DATA     WORD      TIM3__CNTR
      00000092H   SFRSYM    DATA     WORD      TIM4__CNTR
      00000098H   SFRSYM    DATA     BIT       RI
      00000098H.6 SFRSYM    DATA     BIT       UT_MOD0
      00000098H.7 SFRSYM    DATA     BIT       UT_MOD1
      000000D0H.7 SFRSYM    DATA     BIT       CY
      00000098H.1 SFRSYM    DATA     BIT       TI
      000000C0H.2 SFRSYM    DATA     BIT       PTIM10
      00000084H   SFRSYM    DATA     BYTE      FLA_KEY
      000000C0H   SFRSYM    DATA     BIT       PTIM20
      000000C0H.3 SFRSYM    DATA     BIT       PTIM11
      00000098H   SFRSYM    DATA     BYTE      UT_CR
      000000C8H.2 SFRSYM    DATA     BIT       PTIM30
      000000C0H.1 SFRSYM    DATA     BIT       PTIM21
      00000099H   SFRSYM    DATA     BYTE      UT_DR
      000000C8H.3 SFRSYM    DATA     BIT       PTIM31
      000000D0H.2 SFRSYM    DATA     BIT       OV
      0000009AH   SFRSYM    DATA     WORD      UT_BAUD
      000000D8H.4 SFRSYM    DATA     BIT       PSPI_UT20
      000000D8H.5 SFRSYM    DATA     BIT       PSPI_UT21
      00000087H   SFRSYM    DATA     BYTE      PCON
      00000088H   SFRSYM    DATA     BYTE      TCON
      00000082H   SFRSYM    DATA     WORD      DPTR
      00000088H.2 SFRSYM    DATA     BIT       IF0
      000000AEH   SFRSYM    DATA     WORD      TIM2__ARR
      000000A1H   SFRSYM    DATA     BYTE      TIM2_CR0
      000000A6H   SFRSYM    DATA     WORD      TIM3__ARR
      0000009CH   SFRSYM    DATA     BYTE      TIM3_CR0
      000000A9H   SFRSYM    DATA     BYTE      TIM2_CR1
      00000096H   SFRSYM    DATA     WORD      TIM4__ARR
      0000009EH   SFRSYM    DATA     BYTE      TIM4_CR0
      0000009DH   SFRSYM    DATA     BYTE      TIM3_CR1
      000000F8H   SFRSYM    DATA     BYTE      DRV_OUT
      0000009FH   SFRSYM    DATA     BYTE      TIM4_CR1
      000000E0H   SFRSYM    DATA     BYTE      ACC
      000000DBH   SFRSYM    DATA     BYTE      LVSR
      000000A8H.4 SFRSYM    DATA     BIT       ES0
      00000085H   SFRSYM    DATA     BYTE      FLA_CR
      000000C0H.4 SFRSYM    DATA     BIT       PADC0
      000000B8H   SFRSYM    DATA     BYTE      IP0
      000000C0H.5 SFRSYM    DATA     BIT       PADC1
      000000C0H   SFRSYM    DATA     BYTE      IP1
      000000C8H   SFRSYM    DATA     BYTE      IP2
      00000098H.2 SFRSYM    DATA     BIT       RB8
      000000D8H   SFRSYM    DATA     BYTE      IP3
      000000A8H   SFRSYM    DATA     BIT       EX0
      00000098H.3 SFRSYM    DATA     BIT       TB8
      000000A8H.2 SFRSYM    DATA     BIT       EX1
      000000D0H   SFRSYM    DATA     BIT       P
      0000008AH   SFRSYM    DATA     BYTE      UT2_CR
      00000089H   SFRSYM    DATA     BYTE      UT2_DR
      00000098H.5 SFRSYM    DATA     BIT       SM2
      000000D8H.6 SFRSYM    DATA     BIT       PDMA0
      000000D8H.7 SFRSYM    DATA     BIT       PDMA1
      000000D0H.3 SFRSYM    DATA     BIT       RS0
      000000D0H.4 SFRSYM    DATA     BIT       RS1
LX51 LINKER/LOCATER V4.41                                                             01/15/2025  09:25:09  PAGE 72


      000000CAH   SFRSYM    DATA     BYTE      MDU_MD
      000000C1H   SFRSYM    DATA     BYTE      MDU_CR
      000000F8H.7 SFRSYM    DATA     BIT       MOE
      000000C0H.6 SFRSYM    DATA     BIT       PCMP0
      000000C0H.7 SFRSYM    DATA     BIT       PCMP1
      00000098H.4 SFRSYM    DATA     BIT       REN
      000000D7H   SFRSYM    DATA     BYTE      CMP_SR
      000000C8H   SFRSYM    DATA     BIT       PRTC0
      000000C8H.1 SFRSYM    DATA     BIT       PRTC1
      000000C8H.6 SFRSYM    DATA     BIT       PTSD0
      000000C8H.7 SFRSYM    DATA     BIT       PTSD1
      000000B8H.6 SFRSYM    DATA     BIT       PDRV0
      000000B8H.7 SFRSYM    DATA     BIT       PDRV1
      000000D1H   SFRSYM    DATA     BYTE      P1_IE
      000000D3H   SFRSYM    DATA     BYTE      P2_IE
      000000D2H   SFRSYM    DATA     BYTE      P1_IF
      000000D4H   SFRSYM    DATA     BYTE      P2_IF
      000000ACH   SFRSYM    DATA     WORD      TIM2__DR
      000000C8H.4 SFRSYM    DATA     BIT       PTIM4S0
      000000FCH   SFRSYM    DATA     BYTE      P0_OE
      000000A4H   SFRSYM    DATA     WORD      TIM3__DR
      000000C8H.5 SFRSYM    DATA     BIT       PTIM4S1
      000000FDH   SFRSYM    DATA     BYTE      P1_OE
      00000094H   SFRSYM    DATA     WORD      TIM4__DR
      000000D0H.5 SFRSYM    DATA     BIT       F0
      000000FEH   SFRSYM    DATA     BYTE      P2_OE
      000000D0H.1 SFRSYM    DATA     BIT       F1
      000000FFH   SFRSYM    DATA     BYTE      P3_OE
      00000080H   SFRSYM    DATA     BIT       GP00
      000000E9H   SFRSYM    DATA     BYTE      P4_OE
      00000090H   SFRSYM    DATA     BIT       GP10
      00000080H.1 SFRSYM    DATA     BIT       GP01
      000000A8H.6 SFRSYM    DATA     BIT       RTCIE
      000000A0H   SFRSYM    DATA     BIT       GP20
      00000090H.1 SFRSYM    DATA     BIT       GP11
      00000080H.2 SFRSYM    DATA     BIT       GP02
      000000B0H   SFRSYM    DATA     BIT       GP30
      000000A0H.1 SFRSYM    DATA     BIT       GP21
      00000090H.2 SFRSYM    DATA     BIT       GP12
      00000080H.3 SFRSYM    DATA     BIT       GP03
      000000D8H.2 SFRSYM    DATA     BIT       PI2C_UT10
      000000B8H   SFRSYM    DATA     BIT       PLVW0
      000000A8H.1 SFRSYM    DATA     BIT       TSDIE
      000000D0H   SFRSYM    DATA     BYTE      PSW
      000000B0H.1 SFRSYM    DATA     BIT       GP31
      000000A0H.2 SFRSYM    DATA     BIT       GP22
      00000090H.3 SFRSYM    DATA     BIT       GP13
      00000080H.4 SFRSYM    DATA     BIT       GP04
      000000D8H.3 SFRSYM    DATA     BIT       PI2C_UT11
      000000B8H.1 SFRSYM    DATA     BIT       PLVW1
      000000A8H.3 SFRSYM    DATA     BIT       SPIIE
      00000088H.5 SFRSYM    DATA     BIT       TSDIF
      000000B0H.2 SFRSYM    DATA     BIT       GP32
      000000A0H.3 SFRSYM    DATA     BIT       GP23
      00000090H.4 SFRSYM    DATA     BIT       GP14
      00000080H.5 SFRSYM    DATA     BIT       GP05
      000000E8H.2 SFRSYM    DATA     BIT       GP42
      000000B0H.3 SFRSYM    DATA     BIT       GP33
      000000A0H.4 SFRSYM    DATA     BIT       GP24
      00000090H.5 SFRSYM    DATA     BIT       GP15
      00000080H.6 SFRSYM    DATA     BIT       GP06
      00000088H   SFRSYM    DATA     BIT       IT00

      01002743H   BLOCK     CODE     ---       LVL=0
      01002743H   LINE      CODE     ---       #17
LX51 LINKER/LOCATER V4.41                                                             01/15/2025  09:25:09  PAGE 73


      01002743H   LINE      CODE     ---       #18
      01002743H   LINE      CODE     ---       #19
      0100274DH   LINE      CODE     ---       #20
      01002751H   LINE      CODE     ---       #21
      01002758H   LINE      CODE     ---       #23
      0100275EH   LINE      CODE     ---       #24
      01002760H   LINE      CODE     ---       #26
      01002767H   LINE      CODE     ---       #28
      0100276BH   LINE      CODE     ---       #30
      0100276FH   LINE      CODE     ---       #31
      01002773H   LINE      CODE     ---       #33
      0100277CH   LINE      CODE     ---       #35
      0100277EH   LINE      CODE     ---       #36
      01002780H   LINE      CODE     ---       #38
      01002787H   LINE      CODE     ---       #40
      0100278CH   LINE      CODE     ---       #42
      01002790H   LINE      CODE     ---       #44
      01002794H   LINE      CODE     ---       #45
      01002798H   LINE      CODE     ---       #46
      0100279CH   LINE      CODE     ---       #47
      0100279EH   LINE      CODE     ---       #48
      ---         BLOCKEND  ---      ---       LVL=0

      ---         MODULE    ---      ---       GPIO
      01000006H   PUBLIC    CODE     ---       GPIO_Init
      01002CA9H   PUBLIC    CODE     ---       GPIO_DefaultInit
      000000E8H.3 SFRSYM    DATA     BIT       GP43
      000000B0H.4 SFRSYM    DATA     BIT       GP34
      000000A0H.5 SFRSYM    DATA     BIT       GP25
      00000090H.6 SFRSYM    DATA     BIT       GP16
      00000080H.7 SFRSYM    DATA     BIT       GP07
      00000088H.1 SFRSYM    DATA     BIT       IT01
      00000088H.3 SFRSYM    DATA     BIT       IT10
      000000E8H.4 SFRSYM    DATA     BIT       GP44
      000000B0H.5 SFRSYM    DATA     BIT       GP35
      000000A0H.6 SFRSYM    DATA     BIT       GP26
      00000090H.7 SFRSYM    DATA     BIT       GP17
      00000080H   SFRSYM    DATA     BYTE      P0
      00000088H.4 SFRSYM    DATA     BIT       IT11
      000000C9H   SFRSYM    DATA     BYTE      RST_SR
      000000D9H   SFRSYM    DATA     BYTE      EVT_FILT
      000000E8H.5 SFRSYM    DATA     BIT       GP45
      000000B0H.6 SFRSYM    DATA     BIT       GP36
      000000A0H.7 SFRSYM    DATA     BIT       GP27
      00000090H   SFRSYM    DATA     BYTE      P1
      000000B0H.7 SFRSYM    DATA     BIT       GP37
      000000A0H   SFRSYM    DATA     BYTE      P2
      000000B0H   SFRSYM    DATA     BYTE      P3
      000000E8H   SFRSYM    DATA     BYTE      P4
      000000D0H.6 SFRSYM    DATA     BIT       AC
      000000A8H.7 SFRSYM    DATA     BIT       EA
      000000D5H   SFRSYM    DATA     BYTE      CMP_CR0
      000000D6H   SFRSYM    DATA     BYTE      CMP_CR1
      000000C6H   SFRSYM    DATA     WORD      MDU_A
      000000DAH   SFRSYM    DATA     BYTE      CMP_CR2
      000000C4H   SFRSYM    DATA     WORD      MDU_B
      000000B8H.2 SFRSYM    DATA     BIT       PX00
      000000DCH   SFRSYM    DATA     BYTE      CMP_CR3
      000000F8H   SFRSYM    DATA     BIT       OISUH
      000000C2H   SFRSYM    DATA     WORD      MDU_C
      000000B8H.3 SFRSYM    DATA     BIT       PX01
      000000B8H.4 SFRSYM    DATA     BIT       PX10
      000000E1H   SFRSYM    DATA     BYTE      CMP_CR4
      000000F8H.2 SFRSYM    DATA     BIT       OISVH
      000000CBH   SFRSYM    DATA     BYTE      MDU_D
LX51 LINKER/LOCATER V4.41                                                             01/15/2025  09:25:09  PAGE 74


      000000B8H.5 SFRSYM    DATA     BIT       PX11
      000000F8H.4 SFRSYM    DATA     BIT       OISWH
      000000F8H.1 SFRSYM    DATA     BIT       OISUL
      000000A8H   SFRSYM    DATA     BYTE      IE
      000000F8H.3 SFRSYM    DATA     BIT       OISVL
      000000F9H   SFRSYM    DATA     BYTE      PI_CR
      000000F8H.5 SFRSYM    DATA     BIT       OISWL
      000000D8H   SFRSYM    DATA     BIT       PCMP30
      000000AAH   SFRSYM    DATA     WORD      TIM2__CNTR
      000000D8H.1 SFRSYM    DATA     BIT       PCMP31
      000000A2H   SFRSYM    DATA     WORD      TIM3__CNTR
      00000092H   SFRSYM    DATA     WORD      TIM4__CNTR
      00000098H   SFRSYM    DATA     BIT       RI
      00000098H.6 SFRSYM    DATA     BIT       UT_MOD0
      00000098H.7 SFRSYM    DATA     BIT       UT_MOD1
      000000D0H.7 SFRSYM    DATA     BIT       CY
      00000098H.1 SFRSYM    DATA     BIT       TI
      000000C0H.2 SFRSYM    DATA     BIT       PTIM10
      00000084H   SFRSYM    DATA     BYTE      FLA_KEY
      000000C0H   SFRSYM    DATA     BIT       PTIM20
      000000C0H.3 SFRSYM    DATA     BIT       PTIM11
      00000098H   SFRSYM    DATA     BYTE      UT_CR
      000000C8H.2 SFRSYM    DATA     BIT       PTIM30
      000000C0H.1 SFRSYM    DATA     BIT       PTIM21
      00000099H   SFRSYM    DATA     BYTE      UT_DR
      000000C8H.3 SFRSYM    DATA     BIT       PTIM31
      000000D0H.2 SFRSYM    DATA     BIT       OV
      0000009AH   SFRSYM    DATA     WORD      UT_BAUD
      000000D8H.4 SFRSYM    DATA     BIT       PSPI_UT20
      000000D8H.5 SFRSYM    DATA     BIT       PSPI_UT21
      00000087H   SFRSYM    DATA     BYTE      PCON
      00000088H   SFRSYM    DATA     BYTE      TCON
      00000082H   SFRSYM    DATA     WORD      DPTR
      00000088H.2 SFRSYM    DATA     BIT       IF0
      000000AEH   SFRSYM    DATA     WORD      TIM2__ARR
      000000A1H   SFRSYM    DATA     BYTE      TIM2_CR0
      000000A6H   SFRSYM    DATA     WORD      TIM3__ARR
      0000009CH   SFRSYM    DATA     BYTE      TIM3_CR0
      000000A9H   SFRSYM    DATA     BYTE      TIM2_CR1
      00000096H   SFRSYM    DATA     WORD      TIM4__ARR
      0000009EH   SFRSYM    DATA     BYTE      TIM4_CR0
      0000009DH   SFRSYM    DATA     BYTE      TIM3_CR1
      000000F8H   SFRSYM    DATA     BYTE      DRV_OUT
      0000009FH   SFRSYM    DATA     BYTE      TIM4_CR1
      000000E0H   SFRSYM    DATA     BYTE      ACC
      000000DBH   SFRSYM    DATA     BYTE      LVSR
      000000A8H.4 SFRSYM    DATA     BIT       ES0
      00000085H   SFRSYM    DATA     BYTE      FLA_CR
      000000C0H.4 SFRSYM    DATA     BIT       PADC0
      000000B8H   SFRSYM    DATA     BYTE      IP0
      000000C0H.5 SFRSYM    DATA     BIT       PADC1
      000000C0H   SFRSYM    DATA     BYTE      IP1
      000000C8H   SFRSYM    DATA     BYTE      IP2
      00000098H.2 SFRSYM    DATA     BIT       RB8
      000000D8H   SFRSYM    DATA     BYTE      IP3
      000000A8H   SFRSYM    DATA     BIT       EX0
      00000098H.3 SFRSYM    DATA     BIT       TB8
      000000A8H.2 SFRSYM    DATA     BIT       EX1
      000000D0H   SFRSYM    DATA     BIT       P
      0000008AH   SFRSYM    DATA     BYTE      UT2_CR
      00000089H   SFRSYM    DATA     BYTE      UT2_DR
      00000098H.5 SFRSYM    DATA     BIT       SM2
      000000D8H.6 SFRSYM    DATA     BIT       PDMA0
      000000D8H.7 SFRSYM    DATA     BIT       PDMA1
      000000D0H.3 SFRSYM    DATA     BIT       RS0
LX51 LINKER/LOCATER V4.41                                                             01/15/2025  09:25:09  PAGE 75


      000000D0H.4 SFRSYM    DATA     BIT       RS1
      000000CAH   SFRSYM    DATA     BYTE      MDU_MD
      000000C1H   SFRSYM    DATA     BYTE      MDU_CR
      000000F8H.7 SFRSYM    DATA     BIT       MOE
      000000C0H.6 SFRSYM    DATA     BIT       PCMP0
      000000C0H.7 SFRSYM    DATA     BIT       PCMP1
      00000098H.4 SFRSYM    DATA     BIT       REN
      000000D7H   SFRSYM    DATA     BYTE      CMP_SR
      000000C8H   SFRSYM    DATA     BIT       PRTC0
      000000C8H.1 SFRSYM    DATA     BIT       PRTC1
      000000C8H.6 SFRSYM    DATA     BIT       PTSD0
      000000C8H.7 SFRSYM    DATA     BIT       PTSD1
      000000B8H.6 SFRSYM    DATA     BIT       PDRV0
      000000B8H.7 SFRSYM    DATA     BIT       PDRV1
      000000D1H   SFRSYM    DATA     BYTE      P1_IE
      000000D3H   SFRSYM    DATA     BYTE      P2_IE
      000000D2H   SFRSYM    DATA     BYTE      P1_IF
      000000D4H   SFRSYM    DATA     BYTE      P2_IF
      000000ACH   SFRSYM    DATA     WORD      TIM2__DR
      000000C8H.4 SFRSYM    DATA     BIT       PTIM4S0
      000000FCH   SFRSYM    DATA     BYTE      P0_OE
      000000A4H   SFRSYM    DATA     WORD      TIM3__DR
      000000C8H.5 SFRSYM    DATA     BIT       PTIM4S1
      000000FDH   SFRSYM    DATA     BYTE      P1_OE
      00000094H   SFRSYM    DATA     WORD      TIM4__DR
      000000D0H.5 SFRSYM    DATA     BIT       F0
      000000FEH   SFRSYM    DATA     BYTE      P2_OE
      000000D0H.1 SFRSYM    DATA     BIT       F1
      000000FFH   SFRSYM    DATA     BYTE      P3_OE
      00000080H   SFRSYM    DATA     BIT       GP00
      000000E9H   SFRSYM    DATA     BYTE      P4_OE
      00000090H   SFRSYM    DATA     BIT       GP10
      00000080H.1 SFRSYM    DATA     BIT       GP01
      000000A8H.6 SFRSYM    DATA     BIT       RTCIE
      000000A0H   SFRSYM    DATA     BIT       GP20
      00000090H.1 SFRSYM    DATA     BIT       GP11
      00000080H.2 SFRSYM    DATA     BIT       GP02
      000000B0H   SFRSYM    DATA     BIT       GP30
      000000A0H.1 SFRSYM    DATA     BIT       GP21
      00000090H.2 SFRSYM    DATA     BIT       GP12
      00000080H.3 SFRSYM    DATA     BIT       GP03
      000000D8H.2 SFRSYM    DATA     BIT       PI2C_UT10
      000000B8H   SFRSYM    DATA     BIT       PLVW0
      000000A8H.1 SFRSYM    DATA     BIT       TSDIE
      000000D0H   SFRSYM    DATA     BYTE      PSW
      000000B0H.1 SFRSYM    DATA     BIT       GP31
      000000A0H.2 SFRSYM    DATA     BIT       GP22
      00000090H.3 SFRSYM    DATA     BIT       GP13
      00000080H.4 SFRSYM    DATA     BIT       GP04
      000000D8H.3 SFRSYM    DATA     BIT       PI2C_UT11
      000000B8H.1 SFRSYM    DATA     BIT       PLVW1
      000000A8H.3 SFRSYM    DATA     BIT       SPIIE
      00000088H.5 SFRSYM    DATA     BIT       TSDIF
      000000B0H.2 SFRSYM    DATA     BIT       GP32
      000000A0H.3 SFRSYM    DATA     BIT       GP23
      00000090H.4 SFRSYM    DATA     BIT       GP14
      00000080H.5 SFRSYM    DATA     BIT       GP05
      000000E8H.2 SFRSYM    DATA     BIT       GP42
      000000B0H.3 SFRSYM    DATA     BIT       GP33
      000000A0H.4 SFRSYM    DATA     BIT       GP24
      00000090H.5 SFRSYM    DATA     BIT       GP15
      00000080H.6 SFRSYM    DATA     BIT       GP06
      00000088H   SFRSYM    DATA     BIT       IT00

      01002CA9H   BLOCK     CODE     ---       LVL=0
LX51 LINKER/LOCATER V4.41                                                             01/15/2025  09:25:09  PAGE 76


      01002CA9H   LINE      CODE     ---       #18
      01002CA9H   LINE      CODE     ---       #19
      01002CA9H   LINE      CODE     ---       #20
      01002CACH   LINE      CODE     ---       #21
      01002CB2H   LINE      CODE     ---       #22
      ---         BLOCKEND  ---      ---       LVL=0

      01000006H   BLOCK     CODE     ---       LVL=0
      01000006H   LINE      CODE     ---       #29
      01000006H   LINE      CODE     ---       #30
      01000006H   LINE      CODE     ---       #31
      01000009H   LINE      CODE     ---       #33
      01000010H   LINE      CODE     ---       #34
      01000012H   LINE      CODE     ---       #36
      01000015H   LINE      CODE     ---       #37
      01000019H   LINE      CODE     ---       #39
      ---         BLOCKEND  ---      ---       LVL=0

      ---         MODULE    ---      ---       PI
      01002942H   PUBLIC    CODE     ---       PI3_Init
      000000E8H.3 SFRSYM    DATA     BIT       GP43
      000000B0H.4 SFRSYM    DATA     BIT       GP34
      000000A0H.5 SFRSYM    DATA     BIT       GP25
      00000090H.6 SFRSYM    DATA     BIT       GP16
      00000080H.7 SFRSYM    DATA     BIT       GP07
      00000088H.1 SFRSYM    DATA     BIT       IT01
      00000088H.3 SFRSYM    DATA     BIT       IT10
      000000E8H.4 SFRSYM    DATA     BIT       GP44
      000000B0H.5 SFRSYM    DATA     BIT       GP35
      000000A0H.6 SFRSYM    DATA     BIT       GP26
      00000090H.7 SFRSYM    DATA     BIT       GP17
      00000080H   SFRSYM    DATA     BYTE      P0
      00000088H.4 SFRSYM    DATA     BIT       IT11
      000000C9H   SFRSYM    DATA     BYTE      RST_SR
      000000D9H   SFRSYM    DATA     BYTE      EVT_FILT
      000000E8H.5 SFRSYM    DATA     BIT       GP45
      000000B0H.6 SFRSYM    DATA     BIT       GP36
      000000A0H.7 SFRSYM    DATA     BIT       GP27
      00000090H   SFRSYM    DATA     BYTE      P1
      000000B0H.7 SFRSYM    DATA     BIT       GP37
      000000A0H   SFRSYM    DATA     BYTE      P2
      000000B0H   SFRSYM    DATA     BYTE      P3
      000000E8H   SFRSYM    DATA     BYTE      P4
      000000D0H.6 SFRSYM    DATA     BIT       AC
      000000A8H.7 SFRSYM    DATA     BIT       EA
      000000D5H   SFRSYM    DATA     BYTE      CMP_CR0
      000000D6H   SFRSYM    DATA     BYTE      CMP_CR1
      000000C6H   SFRSYM    DATA     WORD      MDU_A
      000000DAH   SFRSYM    DATA     BYTE      CMP_CR2
      000000C4H   SFRSYM    DATA     WORD      MDU_B
      000000B8H.2 SFRSYM    DATA     BIT       PX00
      000000DCH   SFRSYM    DATA     BYTE      CMP_CR3
      000000F8H   SFRSYM    DATA     BIT       OISUH
      000000C2H   SFRSYM    DATA     WORD      MDU_C
      000000B8H.3 SFRSYM    DATA     BIT       PX01
      000000B8H.4 SFRSYM    DATA     BIT       PX10
      000000E1H   SFRSYM    DATA     BYTE      CMP_CR4
      000000F8H.2 SFRSYM    DATA     BIT       OISVH
      000000CBH   SFRSYM    DATA     BYTE      MDU_D
      000000B8H.5 SFRSYM    DATA     BIT       PX11
      000000F8H.4 SFRSYM    DATA     BIT       OISWH
      000000F8H.1 SFRSYM    DATA     BIT       OISUL
      000000A8H   SFRSYM    DATA     BYTE      IE
      000000F8H.3 SFRSYM    DATA     BIT       OISVL
      000000F9H   SFRSYM    DATA     BYTE      PI_CR
LX51 LINKER/LOCATER V4.41                                                             01/15/2025  09:25:09  PAGE 77


      000000F8H.5 SFRSYM    DATA     BIT       OISWL
      000000D8H   SFRSYM    DATA     BIT       PCMP30
      000000AAH   SFRSYM    DATA     WORD      TIM2__CNTR
      000000D8H.1 SFRSYM    DATA     BIT       PCMP31
      000000A2H   SFRSYM    DATA     WORD      TIM3__CNTR
      00000092H   SFRSYM    DATA     WORD      TIM4__CNTR
      00000098H   SFRSYM    DATA     BIT       RI
      00000098H.6 SFRSYM    DATA     BIT       UT_MOD0
      00000098H.7 SFRSYM    DATA     BIT       UT_MOD1
      000000D0H.7 SFRSYM    DATA     BIT       CY
      00000098H.1 SFRSYM    DATA     BIT       TI
      000000C0H.2 SFRSYM    DATA     BIT       PTIM10
      00000084H   SFRSYM    DATA     BYTE      FLA_KEY
      000000C0H   SFRSYM    DATA     BIT       PTIM20
      000000C0H.3 SFRSYM    DATA     BIT       PTIM11
      00000098H   SFRSYM    DATA     BYTE      UT_CR
      000000C8H.2 SFRSYM    DATA     BIT       PTIM30
      000000C0H.1 SFRSYM    DATA     BIT       PTIM21
      00000099H   SFRSYM    DATA     BYTE      UT_DR
      000000C8H.3 SFRSYM    DATA     BIT       PTIM31
      000000D0H.2 SFRSYM    DATA     BIT       OV
      0000009AH   SFRSYM    DATA     WORD      UT_BAUD
      000000D8H.4 SFRSYM    DATA     BIT       PSPI_UT20
      000000D8H.5 SFRSYM    DATA     BIT       PSPI_UT21
      00000087H   SFRSYM    DATA     BYTE      PCON
      00000088H   SFRSYM    DATA     BYTE      TCON
      00000082H   SFRSYM    DATA     WORD      DPTR
      00000088H.2 SFRSYM    DATA     BIT       IF0
      000000AEH   SFRSYM    DATA     WORD      TIM2__ARR
      000000A1H   SFRSYM    DATA     BYTE      TIM2_CR0
      000000A6H   SFRSYM    DATA     WORD      TIM3__ARR
      0000009CH   SFRSYM    DATA     BYTE      TIM3_CR0
      000000A9H   SFRSYM    DATA     BYTE      TIM2_CR1
      00000096H   SFRSYM    DATA     WORD      TIM4__ARR
      0000009EH   SFRSYM    DATA     BYTE      TIM4_CR0
      0000009DH   SFRSYM    DATA     BYTE      TIM3_CR1
      000000F8H   SFRSYM    DATA     BYTE      DRV_OUT
      0000009FH   SFRSYM    DATA     BYTE      TIM4_CR1
      000000E0H   SFRSYM    DATA     BYTE      ACC
      000000DBH   SFRSYM    DATA     BYTE      LVSR
      000000A8H.4 SFRSYM    DATA     BIT       ES0
      00000085H   SFRSYM    DATA     BYTE      FLA_CR
      000000C0H.4 SFRSYM    DATA     BIT       PADC0
      000000B8H   SFRSYM    DATA     BYTE      IP0
      000000C0H.5 SFRSYM    DATA     BIT       PADC1
      000000C0H   SFRSYM    DATA     BYTE      IP1
      000000C8H   SFRSYM    DATA     BYTE      IP2
      00000098H.2 SFRSYM    DATA     BIT       RB8
      000000D8H   SFRSYM    DATA     BYTE      IP3
      000000A8H   SFRSYM    DATA     BIT       EX0
      00000098H.3 SFRSYM    DATA     BIT       TB8
      000000A8H.2 SFRSYM    DATA     BIT       EX1
      000000D0H   SFRSYM    DATA     BIT       P
      0000008AH   SFRSYM    DATA     BYTE      UT2_CR
      00000089H   SFRSYM    DATA     BYTE      UT2_DR
      00000098H.5 SFRSYM    DATA     BIT       SM2
      000000D8H.6 SFRSYM    DATA     BIT       PDMA0
      000000D8H.7 SFRSYM    DATA     BIT       PDMA1
      000000D0H.3 SFRSYM    DATA     BIT       RS0
      000000D0H.4 SFRSYM    DATA     BIT       RS1
      000000CAH   SFRSYM    DATA     BYTE      MDU_MD
      000000C1H   SFRSYM    DATA     BYTE      MDU_CR
      000000F8H.7 SFRSYM    DATA     BIT       MOE
      000000C0H.6 SFRSYM    DATA     BIT       PCMP0
      000000C0H.7 SFRSYM    DATA     BIT       PCMP1
LX51 LINKER/LOCATER V4.41                                                             01/15/2025  09:25:09  PAGE 78


      00000098H.4 SFRSYM    DATA     BIT       REN
      000000D7H   SFRSYM    DATA     BYTE      CMP_SR
      000000C8H   SFRSYM    DATA     BIT       PRTC0
      000000C8H.1 SFRSYM    DATA     BIT       PRTC1
      000000C8H.6 SFRSYM    DATA     BIT       PTSD0
      000000C8H.7 SFRSYM    DATA     BIT       PTSD1
      000000B8H.6 SFRSYM    DATA     BIT       PDRV0
      000000B8H.7 SFRSYM    DATA     BIT       PDRV1
      000000D1H   SFRSYM    DATA     BYTE      P1_IE
      000000D3H   SFRSYM    DATA     BYTE      P2_IE
      000000D2H   SFRSYM    DATA     BYTE      P1_IF
      000000D4H   SFRSYM    DATA     BYTE      P2_IF
      000000ACH   SFRSYM    DATA     WORD      TIM2__DR
      000000C8H.4 SFRSYM    DATA     BIT       PTIM4S0
      000000FCH   SFRSYM    DATA     BYTE      P0_OE
      000000A4H   SFRSYM    DATA     WORD      TIM3__DR
      000000C8H.5 SFRSYM    DATA     BIT       PTIM4S1
      000000FDH   SFRSYM    DATA     BYTE      P1_OE
      00000094H   SFRSYM    DATA     WORD      TIM4__DR
      000000D0H.5 SFRSYM    DATA     BIT       F0
      000000FEH   SFRSYM    DATA     BYTE      P2_OE
      000000D0H.1 SFRSYM    DATA     BIT       F1
      000000FFH   SFRSYM    DATA     BYTE      P3_OE
      00000080H   SFRSYM    DATA     BIT       GP00
      000000E9H   SFRSYM    DATA     BYTE      P4_OE
      00000090H   SFRSYM    DATA     BIT       GP10
      00000080H.1 SFRSYM    DATA     BIT       GP01
      000000A8H.6 SFRSYM    DATA     BIT       RTCIE
      000000A0H   SFRSYM    DATA     BIT       GP20
      00000090H.1 SFRSYM    DATA     BIT       GP11
      00000080H.2 SFRSYM    DATA     BIT       GP02
      000000B0H   SFRSYM    DATA     BIT       GP30
      000000A0H.1 SFRSYM    DATA     BIT       GP21
      00000090H.2 SFRSYM    DATA     BIT       GP12
      00000080H.3 SFRSYM    DATA     BIT       GP03
      000000D8H.2 SFRSYM    DATA     BIT       PI2C_UT10
      000000B8H   SFRSYM    DATA     BIT       PLVW0
      000000A8H.1 SFRSYM    DATA     BIT       TSDIE
      000000D0H   SFRSYM    DATA     BYTE      PSW
      000000B0H.1 SFRSYM    DATA     BIT       GP31
      000000A0H.2 SFRSYM    DATA     BIT       GP22
      00000090H.3 SFRSYM    DATA     BIT       GP13
      00000080H.4 SFRSYM    DATA     BIT       GP04
      000000D8H.3 SFRSYM    DATA     BIT       PI2C_UT11
      000000B8H.1 SFRSYM    DATA     BIT       PLVW1
      000000A8H.3 SFRSYM    DATA     BIT       SPIIE
      00000088H.5 SFRSYM    DATA     BIT       TSDIF
      000000B0H.2 SFRSYM    DATA     BIT       GP32
      000000A0H.3 SFRSYM    DATA     BIT       GP23
      00000090H.4 SFRSYM    DATA     BIT       GP14
      00000080H.5 SFRSYM    DATA     BIT       GP05
      000000E8H.2 SFRSYM    DATA     BIT       GP42
      000000B0H.3 SFRSYM    DATA     BIT       GP33
      000000A0H.4 SFRSYM    DATA     BIT       GP24
      00000090H.5 SFRSYM    DATA     BIT       GP15
      00000080H.6 SFRSYM    DATA     BIT       GP06
      00000088H   SFRSYM    DATA     BIT       IT00

      01002942H   BLOCK     CODE     ---       LVL=0
      01002942H   LINE      CODE     ---       #18
      01002942H   LINE      CODE     ---       #19
      01002942H   LINE      CODE     ---       #20
      0100294CH   LINE      CODE     ---       #21
      01002954H   LINE      CODE     ---       #22
      0100295BH   LINE      CODE     ---       #23
LX51 LINKER/LOCATER V4.41                                                             01/15/2025  09:25:09  PAGE 79


      0100295FH   LINE      CODE     ---       #24
      01002965H   LINE      CODE     ---       #25
      0100296BH   LINE      CODE     ---       #26
      01002971H   LINE      CODE     ---       #27
      0100297BH   LINE      CODE     ---       #28
      01002983H   LINE      CODE     ---       #29
      01002986H   LINE      CODE     ---       #30
      0100298BH   LINE      CODE     ---       #31
      ---         BLOCKEND  ---      ---       LVL=0

      ---         MODULE    ---      ---       TIMER
      010029CFH   PUBLIC    CODE     ---       Timer4_Init
      000000E8H.3 SFRSYM    DATA     BIT       GP43
      000000B0H.4 SFRSYM    DATA     BIT       GP34
      000000A0H.5 SFRSYM    DATA     BIT       GP25
      00000090H.6 SFRSYM    DATA     BIT       GP16
      00000080H.7 SFRSYM    DATA     BIT       GP07
      00000088H.1 SFRSYM    DATA     BIT       IT01
      00000088H.3 SFRSYM    DATA     BIT       IT10
      000000E8H.4 SFRSYM    DATA     BIT       GP44
      000000B0H.5 SFRSYM    DATA     BIT       GP35
      000000A0H.6 SFRSYM    DATA     BIT       GP26
      00000090H.7 SFRSYM    DATA     BIT       GP17
      00000080H   SFRSYM    DATA     BYTE      P0
      00000088H.4 SFRSYM    DATA     BIT       IT11
      000000C9H   SFRSYM    DATA     BYTE      RST_SR
      000000D9H   SFRSYM    DATA     BYTE      EVT_FILT
      000000E8H.5 SFRSYM    DATA     BIT       GP45
      000000B0H.6 SFRSYM    DATA     BIT       GP36
      000000A0H.7 SFRSYM    DATA     BIT       GP27
      00000090H   SFRSYM    DATA     BYTE      P1
      000000B0H.7 SFRSYM    DATA     BIT       GP37
      000000A0H   SFRSYM    DATA     BYTE      P2
      000000B0H   SFRSYM    DATA     BYTE      P3
      000000E8H   SFRSYM    DATA     BYTE      P4
      000000D0H.6 SFRSYM    DATA     BIT       AC
      000000A8H.7 SFRSYM    DATA     BIT       EA
      000000D5H   SFRSYM    DATA     BYTE      CMP_CR0
      000000D6H   SFRSYM    DATA     BYTE      CMP_CR1
      000000C6H   SFRSYM    DATA     WORD      MDU_A
      000000DAH   SFRSYM    DATA     BYTE      CMP_CR2
      000000C4H   SFRSYM    DATA     WORD      MDU_B
      000000B8H.2 SFRSYM    DATA     BIT       PX00
      000000DCH   SFRSYM    DATA     BYTE      CMP_CR3
      000000F8H   SFRSYM    DATA     BIT       OISUH
      000000C2H   SFRSYM    DATA     WORD      MDU_C
      000000B8H.3 SFRSYM    DATA     BIT       PX01
      000000B8H.4 SFRSYM    DATA     BIT       PX10
      000000E1H   SFRSYM    DATA     BYTE      CMP_CR4
      000000F8H.2 SFRSYM    DATA     BIT       OISVH
      000000CBH   SFRSYM    DATA     BYTE      MDU_D
      000000B8H.5 SFRSYM    DATA     BIT       PX11
      000000F8H.4 SFRSYM    DATA     BIT       OISWH
      000000F8H.1 SFRSYM    DATA     BIT       OISUL
      000000A8H   SFRSYM    DATA     BYTE      IE
      000000F8H.3 SFRSYM    DATA     BIT       OISVL
      000000F9H   SFRSYM    DATA     BYTE      PI_CR
      000000F8H.5 SFRSYM    DATA     BIT       OISWL
      000000D8H   SFRSYM    DATA     BIT       PCMP30
      000000AAH   SFRSYM    DATA     WORD      TIM2__CNTR
      000000D8H.1 SFRSYM    DATA     BIT       PCMP31
      000000A2H   SFRSYM    DATA     WORD      TIM3__CNTR
      00000092H   SFRSYM    DATA     WORD      TIM4__CNTR
      00000098H   SFRSYM    DATA     BIT       RI
      00000098H.6 SFRSYM    DATA     BIT       UT_MOD0
LX51 LINKER/LOCATER V4.41                                                             01/15/2025  09:25:09  PAGE 80


      00000098H.7 SFRSYM    DATA     BIT       UT_MOD1
      000000D0H.7 SFRSYM    DATA     BIT       CY
      00000098H.1 SFRSYM    DATA     BIT       TI
      000000C0H.2 SFRSYM    DATA     BIT       PTIM10
      00000084H   SFRSYM    DATA     BYTE      FLA_KEY
      000000C0H   SFRSYM    DATA     BIT       PTIM20
      000000C0H.3 SFRSYM    DATA     BIT       PTIM11
      00000098H   SFRSYM    DATA     BYTE      UT_CR
      000000C8H.2 SFRSYM    DATA     BIT       PTIM30
      000000C0H.1 SFRSYM    DATA     BIT       PTIM21
      00000099H   SFRSYM    DATA     BYTE      UT_DR
      000000C8H.3 SFRSYM    DATA     BIT       PTIM31
      000000D0H.2 SFRSYM    DATA     BIT       OV
      0000009AH   SFRSYM    DATA     WORD      UT_BAUD
      000000D8H.4 SFRSYM    DATA     BIT       PSPI_UT20
      000000D8H.5 SFRSYM    DATA     BIT       PSPI_UT21
      00000087H   SFRSYM    DATA     BYTE      PCON
      00000088H   SFRSYM    DATA     BYTE      TCON
      00000082H   SFRSYM    DATA     WORD      DPTR
      00000088H.2 SFRSYM    DATA     BIT       IF0
      000000AEH   SFRSYM    DATA     WORD      TIM2__ARR
      000000A1H   SFRSYM    DATA     BYTE      TIM2_CR0
      000000A6H   SFRSYM    DATA     WORD      TIM3__ARR
      0000009CH   SFRSYM    DATA     BYTE      TIM3_CR0
      000000A9H   SFRSYM    DATA     BYTE      TIM2_CR1
      00000096H   SFRSYM    DATA     WORD      TIM4__ARR
      0000009EH   SFRSYM    DATA     BYTE      TIM4_CR0
      0000009DH   SFRSYM    DATA     BYTE      TIM3_CR1
      000000F8H   SFRSYM    DATA     BYTE      DRV_OUT
      0000009FH   SFRSYM    DATA     BYTE      TIM4_CR1
      000000E0H   SFRSYM    DATA     BYTE      ACC
      000000DBH   SFRSYM    DATA     BYTE      LVSR
      000000A8H.4 SFRSYM    DATA     BIT       ES0
      00000085H   SFRSYM    DATA     BYTE      FLA_CR
      000000C0H.4 SFRSYM    DATA     BIT       PADC0
      000000B8H   SFRSYM    DATA     BYTE      IP0
      000000C0H.5 SFRSYM    DATA     BIT       PADC1
      000000C0H   SFRSYM    DATA     BYTE      IP1
      000000C8H   SFRSYM    DATA     BYTE      IP2
      00000098H.2 SFRSYM    DATA     BIT       RB8
      000000D8H   SFRSYM    DATA     BYTE      IP3
      000000A8H   SFRSYM    DATA     BIT       EX0
      00000098H.3 SFRSYM    DATA     BIT       TB8
      000000A8H.2 SFRSYM    DATA     BIT       EX1
      000000D0H   SFRSYM    DATA     BIT       P
      0000008AH   SFRSYM    DATA     BYTE      UT2_CR
      00000089H   SFRSYM    DATA     BYTE      UT2_DR
      00000098H.5 SFRSYM    DATA     BIT       SM2
      000000D8H.6 SFRSYM    DATA     BIT       PDMA0
      000000D8H.7 SFRSYM    DATA     BIT       PDMA1
      000000D0H.3 SFRSYM    DATA     BIT       RS0
      000000D0H.4 SFRSYM    DATA     BIT       RS1
      000000CAH   SFRSYM    DATA     BYTE      MDU_MD
      000000C1H   SFRSYM    DATA     BYTE      MDU_CR
      000000F8H.7 SFRSYM    DATA     BIT       MOE
      000000C0H.6 SFRSYM    DATA     BIT       PCMP0
      000000C0H.7 SFRSYM    DATA     BIT       PCMP1
      00000098H.4 SFRSYM    DATA     BIT       REN
      000000D7H   SFRSYM    DATA     BYTE      CMP_SR
      000000C8H   SFRSYM    DATA     BIT       PRTC0
      000000C8H.1 SFRSYM    DATA     BIT       PRTC1
      000000C8H.6 SFRSYM    DATA     BIT       PTSD0
      000000C8H.7 SFRSYM    DATA     BIT       PTSD1
      000000B8H.6 SFRSYM    DATA     BIT       PDRV0
      000000B8H.7 SFRSYM    DATA     BIT       PDRV1
LX51 LINKER/LOCATER V4.41                                                             01/15/2025  09:25:09  PAGE 81


      000000D1H   SFRSYM    DATA     BYTE      P1_IE
      000000D3H   SFRSYM    DATA     BYTE      P2_IE
      000000D2H   SFRSYM    DATA     BYTE      P1_IF
      000000D4H   SFRSYM    DATA     BYTE      P2_IF
      000000ACH   SFRSYM    DATA     WORD      TIM2__DR
      000000C8H.4 SFRSYM    DATA     BIT       PTIM4S0
      000000FCH   SFRSYM    DATA     BYTE      P0_OE
      000000A4H   SFRSYM    DATA     WORD      TIM3__DR
      000000C8H.5 SFRSYM    DATA     BIT       PTIM4S1
      000000FDH   SFRSYM    DATA     BYTE      P1_OE
      00000094H   SFRSYM    DATA     WORD      TIM4__DR
      000000D0H.5 SFRSYM    DATA     BIT       F0
      000000FEH   SFRSYM    DATA     BYTE      P2_OE
      000000D0H.1 SFRSYM    DATA     BIT       F1
      000000FFH   SFRSYM    DATA     BYTE      P3_OE
      00000080H   SFRSYM    DATA     BIT       GP00
      000000E9H   SFRSYM    DATA     BYTE      P4_OE
      00000090H   SFRSYM    DATA     BIT       GP10
      00000080H.1 SFRSYM    DATA     BIT       GP01
      000000A8H.6 SFRSYM    DATA     BIT       RTCIE
      000000A0H   SFRSYM    DATA     BIT       GP20
      00000090H.1 SFRSYM    DATA     BIT       GP11
      00000080H.2 SFRSYM    DATA     BIT       GP02
      000000B0H   SFRSYM    DATA     BIT       GP30
      000000A0H.1 SFRSYM    DATA     BIT       GP21
      00000090H.2 SFRSYM    DATA     BIT       GP12
      00000080H.3 SFRSYM    DATA     BIT       GP03
      000000D8H.2 SFRSYM    DATA     BIT       PI2C_UT10
      000000B8H   SFRSYM    DATA     BIT       PLVW0
      000000A8H.1 SFRSYM    DATA     BIT       TSDIE
      000000D0H   SFRSYM    DATA     BYTE      PSW
      000000B0H.1 SFRSYM    DATA     BIT       GP31
      000000A0H.2 SFRSYM    DATA     BIT       GP22
      00000090H.3 SFRSYM    DATA     BIT       GP13
      00000080H.4 SFRSYM    DATA     BIT       GP04
      000000D8H.3 SFRSYM    DATA     BIT       PI2C_UT11
      000000B8H.1 SFRSYM    DATA     BIT       PLVW1
      000000A8H.3 SFRSYM    DATA     BIT       SPIIE
      00000088H.5 SFRSYM    DATA     BIT       TSDIF
      000000B0H.2 SFRSYM    DATA     BIT       GP32
      000000A0H.3 SFRSYM    DATA     BIT       GP23
      00000090H.4 SFRSYM    DATA     BIT       GP14
      00000080H.5 SFRSYM    DATA     BIT       GP05
      000000E8H.2 SFRSYM    DATA     BIT       GP42
      000000B0H.3 SFRSYM    DATA     BIT       GP33
      000000A0H.4 SFRSYM    DATA     BIT       GP24
      00000090H.5 SFRSYM    DATA     BIT       GP15
      00000080H.6 SFRSYM    DATA     BIT       GP06
      00000088H   SFRSYM    DATA     BIT       IT00

      010029CFH   BLOCK     CODE     ---       LVL=0
      010029CFH   LINE      CODE     ---       #67
      010029CFH   LINE      CODE     ---       #68
      010029CFH   LINE      CODE     ---       #69
      010029D6H   LINE      CODE     ---       #70
      010029DBH   LINE      CODE     ---       #71
      010029E3H   LINE      CODE     ---       #73
      010029E6H   LINE      CODE     ---       #74
      010029E9H   LINE      CODE     ---       #75
      010029ECH   LINE      CODE     ---       #76
      010029EFH   LINE      CODE     ---       #77
      010029F2H   LINE      CODE     ---       #78
      010029F5H   LINE      CODE     ---       #79
      010029F8H   LINE      CODE     ---       #80
      010029FEH   LINE      CODE     ---       #81
LX51 LINKER/LOCATER V4.41                                                             01/15/2025  09:25:09  PAGE 82


      01002A04H   LINE      CODE     ---       #82
      01002A09H   LINE      CODE     ---       #83
      01002A0CH   LINE      CODE     ---       #84
      01002A0FH   LINE      CODE     ---       #85
      ---         BLOCKEND  ---      ---       LVL=0

      ---         MODULE    ---      ---       WDT
      01002AB0H   PUBLIC    CODE     ---       _WatchDogConfig
      000000E8H.3 SFRSYM    DATA     BIT       GP43
      000000B0H.4 SFRSYM    DATA     BIT       GP34
      000000A0H.5 SFRSYM    DATA     BIT       GP25
      00000090H.6 SFRSYM    DATA     BIT       GP16
      00000080H.7 SFRSYM    DATA     BIT       GP07
      00000088H.1 SFRSYM    DATA     BIT       IT01
      00000088H.3 SFRSYM    DATA     BIT       IT10
      000000E8H.4 SFRSYM    DATA     BIT       GP44
      000000B0H.5 SFRSYM    DATA     BIT       GP35
      000000A0H.6 SFRSYM    DATA     BIT       GP26
      00000090H.7 SFRSYM    DATA     BIT       GP17
      00000080H   SFRSYM    DATA     BYTE      P0
      00000088H.4 SFRSYM    DATA     BIT       IT11
      000000C9H   SFRSYM    DATA     BYTE      RST_SR
      000000D9H   SFRSYM    DATA     BYTE      EVT_FILT
      000000E8H.5 SFRSYM    DATA     BIT       GP45
      000000B0H.6 SFRSYM    DATA     BIT       GP36
      000000A0H.7 SFRSYM    DATA     BIT       GP27
      00000090H   SFRSYM    DATA     BYTE      P1
      000000B0H.7 SFRSYM    DATA     BIT       GP37
      000000A0H   SFRSYM    DATA     BYTE      P2
      000000B0H   SFRSYM    DATA     BYTE      P3
      000000E8H   SFRSYM    DATA     BYTE      P4
      000000D0H.6 SFRSYM    DATA     BIT       AC
      000000A8H.7 SFRSYM    DATA     BIT       EA
      000000D5H   SFRSYM    DATA     BYTE      CMP_CR0
      000000D6H   SFRSYM    DATA     BYTE      CMP_CR1
      000000C6H   SFRSYM    DATA     WORD      MDU_A
      000000DAH   SFRSYM    DATA     BYTE      CMP_CR2
      000000C4H   SFRSYM    DATA     WORD      MDU_B
      000000B8H.2 SFRSYM    DATA     BIT       PX00
      000000DCH   SFRSYM    DATA     BYTE      CMP_CR3
      000000F8H   SFRSYM    DATA     BIT       OISUH
      000000C2H   SFRSYM    DATA     WORD      MDU_C
      000000B8H.3 SFRSYM    DATA     BIT       PX01
      000000B8H.4 SFRSYM    DATA     BIT       PX10
      000000E1H   SFRSYM    DATA     BYTE      CMP_CR4
      000000F8H.2 SFRSYM    DATA     BIT       OISVH
      000000CBH   SFRSYM    DATA     BYTE      MDU_D
      000000B8H.5 SFRSYM    DATA     BIT       PX11
      000000F8H.4 SFRSYM    DATA     BIT       OISWH
      000000F8H.1 SFRSYM    DATA     BIT       OISUL
      000000A8H   SFRSYM    DATA     BYTE      IE
      000000F8H.3 SFRSYM    DATA     BIT       OISVL
      000000F9H   SFRSYM    DATA     BYTE      PI_CR
      000000F8H.5 SFRSYM    DATA     BIT       OISWL
      000000D8H   SFRSYM    DATA     BIT       PCMP30
      000000AAH   SFRSYM    DATA     WORD      TIM2__CNTR
      000000D8H.1 SFRSYM    DATA     BIT       PCMP31
      000000A2H   SFRSYM    DATA     WORD      TIM3__CNTR
      00000092H   SFRSYM    DATA     WORD      TIM4__CNTR
      00000098H   SFRSYM    DATA     BIT       RI
      00000098H.6 SFRSYM    DATA     BIT       UT_MOD0
      00000098H.7 SFRSYM    DATA     BIT       UT_MOD1
      000000D0H.7 SFRSYM    DATA     BIT       CY
      00000098H.1 SFRSYM    DATA     BIT       TI
      000000C0H.2 SFRSYM    DATA     BIT       PTIM10
LX51 LINKER/LOCATER V4.41                                                             01/15/2025  09:25:09  PAGE 83


      00000084H   SFRSYM    DATA     BYTE      FLA_KEY
      000000C0H   SFRSYM    DATA     BIT       PTIM20
      000000C0H.3 SFRSYM    DATA     BIT       PTIM11
      00000098H   SFRSYM    DATA     BYTE      UT_CR
      000000C8H.2 SFRSYM    DATA     BIT       PTIM30
      000000C0H.1 SFRSYM    DATA     BIT       PTIM21
      00000099H   SFRSYM    DATA     BYTE      UT_DR
      000000C8H.3 SFRSYM    DATA     BIT       PTIM31
      000000D0H.2 SFRSYM    DATA     BIT       OV
      0000009AH   SFRSYM    DATA     WORD      UT_BAUD
      000000D8H.4 SFRSYM    DATA     BIT       PSPI_UT20
      000000D8H.5 SFRSYM    DATA     BIT       PSPI_UT21
      00000087H   SFRSYM    DATA     BYTE      PCON
      00000088H   SFRSYM    DATA     BYTE      TCON
      00000082H   SFRSYM    DATA     WORD      DPTR
      00000088H.2 SFRSYM    DATA     BIT       IF0
      000000AEH   SFRSYM    DATA     WORD      TIM2__ARR
      000000A1H   SFRSYM    DATA     BYTE      TIM2_CR0
      000000A6H   SFRSYM    DATA     WORD      TIM3__ARR
      0000009CH   SFRSYM    DATA     BYTE      TIM3_CR0
      000000A9H   SFRSYM    DATA     BYTE      TIM2_CR1
      00000096H   SFRSYM    DATA     WORD      TIM4__ARR
      0000009EH   SFRSYM    DATA     BYTE      TIM4_CR0
      0000009DH   SFRSYM    DATA     BYTE      TIM3_CR1
      000000F8H   SFRSYM    DATA     BYTE      DRV_OUT
      0000009FH   SFRSYM    DATA     BYTE      TIM4_CR1
      000000E0H   SFRSYM    DATA     BYTE      ACC
      000000DBH   SFRSYM    DATA     BYTE      LVSR
      000000A8H.4 SFRSYM    DATA     BIT       ES0
      00000085H   SFRSYM    DATA     BYTE      FLA_CR
      000000C0H.4 SFRSYM    DATA     BIT       PADC0
      000000B8H   SFRSYM    DATA     BYTE      IP0
      000000C0H.5 SFRSYM    DATA     BIT       PADC1
      000000C0H   SFRSYM    DATA     BYTE      IP1
      000000C8H   SFRSYM    DATA     BYTE      IP2
      00000098H.2 SFRSYM    DATA     BIT       RB8
      000000D8H   SFRSYM    DATA     BYTE      IP3
      000000A8H   SFRSYM    DATA     BIT       EX0
      00000098H.3 SFRSYM    DATA     BIT       TB8
      000000A8H.2 SFRSYM    DATA     BIT       EX1
      000000D0H   SFRSYM    DATA     BIT       P
      0000008AH   SFRSYM    DATA     BYTE      UT2_CR
      00000089H   SFRSYM    DATA     BYTE      UT2_DR
      00000098H.5 SFRSYM    DATA     BIT       SM2
      000000D8H.6 SFRSYM    DATA     BIT       PDMA0
      000000D8H.7 SFRSYM    DATA     BIT       PDMA1
      000000D0H.3 SFRSYM    DATA     BIT       RS0
      000000D0H.4 SFRSYM    DATA     BIT       RS1
      000000CAH   SFRSYM    DATA     BYTE      MDU_MD
      000000C1H   SFRSYM    DATA     BYTE      MDU_CR
      000000F8H.7 SFRSYM    DATA     BIT       MOE
      000000C0H.6 SFRSYM    DATA     BIT       PCMP0
      000000C0H.7 SFRSYM    DATA     BIT       PCMP1
      00000098H.4 SFRSYM    DATA     BIT       REN
      000000D7H   SFRSYM    DATA     BYTE      CMP_SR
      000000C8H   SFRSYM    DATA     BIT       PRTC0
      000000C8H.1 SFRSYM    DATA     BIT       PRTC1
      000000C8H.6 SFRSYM    DATA     BIT       PTSD0
      000000C8H.7 SFRSYM    DATA     BIT       PTSD1
      000000B8H.6 SFRSYM    DATA     BIT       PDRV0
      000000B8H.7 SFRSYM    DATA     BIT       PDRV1
      000000D1H   SFRSYM    DATA     BYTE      P1_IE
      000000D3H   SFRSYM    DATA     BYTE      P2_IE
      000000D2H   SFRSYM    DATA     BYTE      P1_IF
      000000D4H   SFRSYM    DATA     BYTE      P2_IF
LX51 LINKER/LOCATER V4.41                                                             01/15/2025  09:25:09  PAGE 84


      000000ACH   SFRSYM    DATA     WORD      TIM2__DR
      000000C8H.4 SFRSYM    DATA     BIT       PTIM4S0
      000000FCH   SFRSYM    DATA     BYTE      P0_OE
      000000A4H   SFRSYM    DATA     WORD      TIM3__DR
      000000C8H.5 SFRSYM    DATA     BIT       PTIM4S1
      000000FDH   SFRSYM    DATA     BYTE      P1_OE
      00000094H   SFRSYM    DATA     WORD      TIM4__DR
      000000D0H.5 SFRSYM    DATA     BIT       F0
      000000FEH   SFRSYM    DATA     BYTE      P2_OE
      000000D0H.1 SFRSYM    DATA     BIT       F1
      000000FFH   SFRSYM    DATA     BYTE      P3_OE
      00000080H   SFRSYM    DATA     BIT       GP00
      000000E9H   SFRSYM    DATA     BYTE      P4_OE
      00000090H   SFRSYM    DATA     BIT       GP10
      00000080H.1 SFRSYM    DATA     BIT       GP01
      000000A8H.6 SFRSYM    DATA     BIT       RTCIE
      000000A0H   SFRSYM    DATA     BIT       GP20
      00000090H.1 SFRSYM    DATA     BIT       GP11
      00000080H.2 SFRSYM    DATA     BIT       GP02
      000000B0H   SFRSYM    DATA     BIT       GP30
      000000A0H.1 SFRSYM    DATA     BIT       GP21
      00000090H.2 SFRSYM    DATA     BIT       GP12
      00000080H.3 SFRSYM    DATA     BIT       GP03
      000000D8H.2 SFRSYM    DATA     BIT       PI2C_UT10
      000000B8H   SFRSYM    DATA     BIT       PLVW0
      000000A8H.1 SFRSYM    DATA     BIT       TSDIE
      000000D0H   SFRSYM    DATA     BYTE      PSW
      000000B0H.1 SFRSYM    DATA     BIT       GP31
      000000A0H.2 SFRSYM    DATA     BIT       GP22
      00000090H.3 SFRSYM    DATA     BIT       GP13
      00000080H.4 SFRSYM    DATA     BIT       GP04
      000000D8H.3 SFRSYM    DATA     BIT       PI2C_UT11
      000000B8H.1 SFRSYM    DATA     BIT       PLVW1
      000000A8H.3 SFRSYM    DATA     BIT       SPIIE
      00000088H.5 SFRSYM    DATA     BIT       TSDIF
      000000B0H.2 SFRSYM    DATA     BIT       GP32
      000000A0H.3 SFRSYM    DATA     BIT       GP23
      00000090H.4 SFRSYM    DATA     BIT       GP14
      00000080H.5 SFRSYM    DATA     BIT       GP05
      000000E8H.2 SFRSYM    DATA     BIT       GP42
      000000B0H.3 SFRSYM    DATA     BIT       GP33
      000000A0H.4 SFRSYM    DATA     BIT       GP24
      00000090H.5 SFRSYM    DATA     BIT       GP15
      00000080H.6 SFRSYM    DATA     BIT       GP06
      00000088H   SFRSYM    DATA     BIT       IT00

      01002AB0H   BLOCK     CODE     ---       LVL=0
      00000006H   SYMBOL    DATA     WORD      wdtArrValue
      01002AB0H   LINE      CODE     ---       #19
      01002AB0H   LINE      CODE     ---       #20
      01002AB0H   LINE      CODE     ---       #21
      01002AB7H   LINE      CODE     ---       #22
      01002AD3H   LINE      CODE     ---       #23
      01002ADAH   LINE      CODE     ---       #24
      01002ADEH   LINE      CODE     ---       #25
      ---         BLOCKEND  ---      ---       LVL=0

      ---         MODULE    ---      ---       UART
      010025A6H   PUBLIC    CODE     ---       _Usart2_SendValue
      01001C60H   PUBLIC    CODE     ---       UART2_ReciveData
      010026E4H   PUBLIC    CODE     ---       Motor_Return
      01002681H   PUBLIC    CODE     ---       _Check_CRC8
      0100261EH   PUBLIC    CODE     ---       _Send_CRC8
      0100252BH   PUBLIC    CODE     ---       UART2_Init
      000000E8H.3 SFRSYM    DATA     BIT       GP43
LX51 LINKER/LOCATER V4.41                                                             01/15/2025  09:25:09  PAGE 85


      000000B0H.4 SFRSYM    DATA     BIT       GP34
      000000A0H.5 SFRSYM    DATA     BIT       GP25
      00000090H.6 SFRSYM    DATA     BIT       GP16
      00000080H.7 SFRSYM    DATA     BIT       GP07
      00000088H.1 SFRSYM    DATA     BIT       IT01
      00000088H.3 SFRSYM    DATA     BIT       IT10
      000000E8H.4 SFRSYM    DATA     BIT       GP44
      000000B0H.5 SFRSYM    DATA     BIT       GP35
      000000A0H.6 SFRSYM    DATA     BIT       GP26
      00000090H.7 SFRSYM    DATA     BIT       GP17
      00000080H   SFRSYM    DATA     BYTE      P0
      00000088H.4 SFRSYM    DATA     BIT       IT11
      000000C9H   SFRSYM    DATA     BYTE      RST_SR
      000000D9H   SFRSYM    DATA     BYTE      EVT_FILT
      000000E8H.5 SFRSYM    DATA     BIT       GP45
      000000B0H.6 SFRSYM    DATA     BIT       GP36
      000000A0H.7 SFRSYM    DATA     BIT       GP27
      00000090H   SFRSYM    DATA     BYTE      P1
      000000B0H.7 SFRSYM    DATA     BIT       GP37
      000000A0H   SFRSYM    DATA     BYTE      P2
      000000B0H   SFRSYM    DATA     BYTE      P3
      000000E8H   SFRSYM    DATA     BYTE      P4
      000000D0H.6 SFRSYM    DATA     BIT       AC
      000000A8H.7 SFRSYM    DATA     BIT       EA
      000000D5H   SFRSYM    DATA     BYTE      CMP_CR0
      000000D6H   SFRSYM    DATA     BYTE      CMP_CR1
      000000C6H   SFRSYM    DATA     WORD      MDU_A
      000000DAH   SFRSYM    DATA     BYTE      CMP_CR2
      000000C4H   SFRSYM    DATA     WORD      MDU_B
      000000B8H.2 SFRSYM    DATA     BIT       PX00
      000000DCH   SFRSYM    DATA     BYTE      CMP_CR3
      000000F8H   SFRSYM    DATA     BIT       OISUH
      000000C2H   SFRSYM    DATA     WORD      MDU_C
      000000B8H.3 SFRSYM    DATA     BIT       PX01
      000000B8H.4 SFRSYM    DATA     BIT       PX10
      000000E1H   SFRSYM    DATA     BYTE      CMP_CR4
      000000F8H.2 SFRSYM    DATA     BIT       OISVH
      000000CBH   SFRSYM    DATA     BYTE      MDU_D
      000000B8H.5 SFRSYM    DATA     BIT       PX11
      000000F8H.4 SFRSYM    DATA     BIT       OISWH
      000000F8H.1 SFRSYM    DATA     BIT       OISUL
      000000A8H   SFRSYM    DATA     BYTE      IE
      000000F8H.3 SFRSYM    DATA     BIT       OISVL
      000000F9H   SFRSYM    DATA     BYTE      PI_CR
      000000F8H.5 SFRSYM    DATA     BIT       OISWL
      000000D8H   SFRSYM    DATA     BIT       PCMP30
      000000AAH   SFRSYM    DATA     WORD      TIM2__CNTR
      000000D8H.1 SFRSYM    DATA     BIT       PCMP31
      000000A2H   SFRSYM    DATA     WORD      TIM3__CNTR
      00000092H   SFRSYM    DATA     WORD      TIM4__CNTR
      00000098H   SFRSYM    DATA     BIT       RI
      00000098H.6 SFRSYM    DATA     BIT       UT_MOD0
      00000098H.7 SFRSYM    DATA     BIT       UT_MOD1
      000000D0H.7 SFRSYM    DATA     BIT       CY
      00000098H.1 SFRSYM    DATA     BIT       TI
      000000C0H.2 SFRSYM    DATA     BIT       PTIM10
      00000084H   SFRSYM    DATA     BYTE      FLA_KEY
      000000C0H   SFRSYM    DATA     BIT       PTIM20
      000000C0H.3 SFRSYM    DATA     BIT       PTIM11
      00000098H   SFRSYM    DATA     BYTE      UT_CR
      000000C8H.2 SFRSYM    DATA     BIT       PTIM30
      000000C0H.1 SFRSYM    DATA     BIT       PTIM21
      00000099H   SFRSYM    DATA     BYTE      UT_DR
      000000C8H.3 SFRSYM    DATA     BIT       PTIM31
      000000D0H.2 SFRSYM    DATA     BIT       OV
LX51 LINKER/LOCATER V4.41                                                             01/15/2025  09:25:09  PAGE 86


      0000009AH   SFRSYM    DATA     WORD      UT_BAUD
      000000D8H.4 SFRSYM    DATA     BIT       PSPI_UT20
      000000D8H.5 SFRSYM    DATA     BIT       PSPI_UT21
      00000087H   SFRSYM    DATA     BYTE      PCON
      00000088H   SFRSYM    DATA     BYTE      TCON
      00000082H   SFRSYM    DATA     WORD      DPTR
      00000088H.2 SFRSYM    DATA     BIT       IF0
      000000AEH   SFRSYM    DATA     WORD      TIM2__ARR
      000000A1H   SFRSYM    DATA     BYTE      TIM2_CR0
      000000A6H   SFRSYM    DATA     WORD      TIM3__ARR
      0000009CH   SFRSYM    DATA     BYTE      TIM3_CR0
      000000A9H   SFRSYM    DATA     BYTE      TIM2_CR1
      00000096H   SFRSYM    DATA     WORD      TIM4__ARR
      0000009EH   SFRSYM    DATA     BYTE      TIM4_CR0
      0000009DH   SFRSYM    DATA     BYTE      TIM3_CR1
      000000F8H   SFRSYM    DATA     BYTE      DRV_OUT
      0000009FH   SFRSYM    DATA     BYTE      TIM4_CR1
      000000E0H   SFRSYM    DATA     BYTE      ACC
      000000DBH   SFRSYM    DATA     BYTE      LVSR
      000000A8H.4 SFRSYM    DATA     BIT       ES0
      00000085H   SFRSYM    DATA     BYTE      FLA_CR
      000000C0H.4 SFRSYM    DATA     BIT       PADC0
      000000B8H   SFRSYM    DATA     BYTE      IP0
      000000C0H.5 SFRSYM    DATA     BIT       PADC1
      000000C0H   SFRSYM    DATA     BYTE      IP1
      000000C8H   SFRSYM    DATA     BYTE      IP2
      00000098H.2 SFRSYM    DATA     BIT       RB8
      000000D8H   SFRSYM    DATA     BYTE      IP3
      000000A8H   SFRSYM    DATA     BIT       EX0
      00000098H.3 SFRSYM    DATA     BIT       TB8
      000000A8H.2 SFRSYM    DATA     BIT       EX1
      000000D0H   SFRSYM    DATA     BIT       P
      0000008AH   SFRSYM    DATA     BYTE      UT2_CR
      00000089H   SFRSYM    DATA     BYTE      UT2_DR
      00000098H.5 SFRSYM    DATA     BIT       SM2
      000000D8H.6 SFRSYM    DATA     BIT       PDMA0
      000000D8H.7 SFRSYM    DATA     BIT       PDMA1
      000000D0H.3 SFRSYM    DATA     BIT       RS0
      000000D0H.4 SFRSYM    DATA     BIT       RS1
      000000CAH   SFRSYM    DATA     BYTE      MDU_MD
      000000C1H   SFRSYM    DATA     BYTE      MDU_CR
      000000F8H.7 SFRSYM    DATA     BIT       MOE
      000000C0H.6 SFRSYM    DATA     BIT       PCMP0
      000000C0H.7 SFRSYM    DATA     BIT       PCMP1
      00000098H.4 SFRSYM    DATA     BIT       REN
      000000D7H   SFRSYM    DATA     BYTE      CMP_SR
      000000C8H   SFRSYM    DATA     BIT       PRTC0
      000000C8H.1 SFRSYM    DATA     BIT       PRTC1
      000000C8H.6 SFRSYM    DATA     BIT       PTSD0
      000000C8H.7 SFRSYM    DATA     BIT       PTSD1
      000000B8H.6 SFRSYM    DATA     BIT       PDRV0
      000000B8H.7 SFRSYM    DATA     BIT       PDRV1
      000000D1H   SFRSYM    DATA     BYTE      P1_IE
      000000D3H   SFRSYM    DATA     BYTE      P2_IE
      000000D2H   SFRSYM    DATA     BYTE      P1_IF
      000000D4H   SFRSYM    DATA     BYTE      P2_IF
      000000ACH   SFRSYM    DATA     WORD      TIM2__DR
      000000C8H.4 SFRSYM    DATA     BIT       PTIM4S0
      000000FCH   SFRSYM    DATA     BYTE      P0_OE
      000000A4H   SFRSYM    DATA     WORD      TIM3__DR
      000000C8H.5 SFRSYM    DATA     BIT       PTIM4S1
      000000FDH   SFRSYM    DATA     BYTE      P1_OE
      00000094H   SFRSYM    DATA     WORD      TIM4__DR
      000000D0H.5 SFRSYM    DATA     BIT       F0
      000000FEH   SFRSYM    DATA     BYTE      P2_OE
LX51 LINKER/LOCATER V4.41                                                             01/15/2025  09:25:09  PAGE 87


      000000D0H.1 SFRSYM    DATA     BIT       F1
      000000FFH   SFRSYM    DATA     BYTE      P3_OE
      00000080H   SFRSYM    DATA     BIT       GP00
      000000E9H   SFRSYM    DATA     BYTE      P4_OE
      00000090H   SFRSYM    DATA     BIT       GP10
      00000080H.1 SFRSYM    DATA     BIT       GP01
      000000A8H.6 SFRSYM    DATA     BIT       RTCIE
      000000A0H   SFRSYM    DATA     BIT       GP20
      00000090H.1 SFRSYM    DATA     BIT       GP11
      00000080H.2 SFRSYM    DATA     BIT       GP02
      000000B0H   SFRSYM    DATA     BIT       GP30
      000000A0H.1 SFRSYM    DATA     BIT       GP21
      00000090H.2 SFRSYM    DATA     BIT       GP12
      00000080H.3 SFRSYM    DATA     BIT       GP03
      000000D8H.2 SFRSYM    DATA     BIT       PI2C_UT10
      000000B8H   SFRSYM    DATA     BIT       PLVW0
      000000A8H.1 SFRSYM    DATA     BIT       TSDIE
      000000D0H   SFRSYM    DATA     BYTE      PSW
      000000B0H.1 SFRSYM    DATA     BIT       GP31
      000000A0H.2 SFRSYM    DATA     BIT       GP22
      00000090H.3 SFRSYM    DATA     BIT       GP13
      00000080H.4 SFRSYM    DATA     BIT       GP04
      000000D8H.3 SFRSYM    DATA     BIT       PI2C_UT11
      000000B8H.1 SFRSYM    DATA     BIT       PLVW1
      000000A8H.3 SFRSYM    DATA     BIT       SPIIE
      00000088H.5 SFRSYM    DATA     BIT       TSDIF
      000000B0H.2 SFRSYM    DATA     BIT       GP32
      000000A0H.3 SFRSYM    DATA     BIT       GP23
      00000090H.4 SFRSYM    DATA     BIT       GP14
      00000080H.5 SFRSYM    DATA     BIT       GP05
      000000E8H.2 SFRSYM    DATA     BIT       GP42
      000000B0H.3 SFRSYM    DATA     BIT       GP33
      000000A0H.4 SFRSYM    DATA     BIT       GP24
      00000090H.5 SFRSYM    DATA     BIT       GP15
      00000080H.6 SFRSYM    DATA     BIT       GP06
      00000088H   SFRSYM    DATA     BIT       IT00
      01002CB3H   SYMBOL    CONST    ---       _?ix1000

      0100252BH   BLOCK     CODE     ---       LVL=0
      0100252BH   LINE      CODE     ---       #24
      0100252BH   LINE      CODE     ---       #25
      0100252BH   LINE      CODE     ---       #26
      01002532H   LINE      CODE     ---       #28
      01002535H   LINE      CODE     ---       #29
      0100253CH   LINE      CODE     ---       #30
      0100253FH   LINE      CODE     ---       #31
      01002543H   LINE      CODE     ---       #33
      01002546H   LINE      CODE     ---       #34
      01002549H   LINE      CODE     ---       #36
      0100254CH   LINE      CODE     ---       #38
      0100254FH   LINE      CODE     ---       #40
      01002552H   LINE      CODE     ---       #41
      01002555H   LINE      CODE     ---       #43
      0100256BH   LINE      CODE     ---       #45
      01002581H   LINE      CODE     ---       #47
      01002597H   LINE      CODE     ---       #49
      010025A1H   LINE      CODE     ---       #51
      010025A3H   LINE      CODE     ---       #52
      010025A5H   LINE      CODE     ---       #53
      ---         BLOCKEND  ---      ---       LVL=0

      0100261EH   BLOCK     CODE     ---       LVL=0
      020001D4H   SYMBOL    XDATA    ---       dat
      020001D7H   SYMBOL    XDATA    BYTE      length
      0100262CH   BLOCK     CODE     NEAR LAB  LVL=1
LX51 LINKER/LOCATER V4.41                                                             01/15/2025  09:25:09  PAGE 88


      020001D8H   SYMBOL    XDATA    BYTE      crc
      00000004H   SYMBOL    DATA     BYTE      count
      00000006H   SYMBOL    DATA     BYTE      crc_count
      ---         BLOCKEND  ---      ---       LVL=1
      0100261EH   LINE      CODE     ---       #55
      0100262CH   LINE      CODE     ---       #56
      0100262CH   LINE      CODE     ---       #57
      01002630H   LINE      CODE     ---       #58
      01002632H   LINE      CODE     ---       #59
      01002632H   LINE      CODE     ---       #60
      0100263CH   LINE      CODE     ---       #61
      0100263CH   LINE      CODE     ---       #62
      0100265BH   LINE      CODE     ---       #63
      0100265DH   LINE      CODE     ---       #64
      0100265DH   LINE      CODE     ---       #65
      01002664H   LINE      CODE     ---       #66
      01002664H   LINE      CODE     ---       #67
      01002667H   LINE      CODE     ---       #68
      0100266AH   LINE      CODE     ---       #69
      0100266CH   LINE      CODE     ---       #71
      0100266CH   LINE      CODE     ---       #72
      01002673H   LINE      CODE     ---       #73
      01002673H   LINE      CODE     ---       #74
      01002678H   LINE      CODE     ---       #75
      0100267BH   LINE      CODE     ---       #76
      01002680H   LINE      CODE     ---       #77
      ---         BLOCKEND  ---      ---       LVL=0

      01002681H   BLOCK     CODE     ---       LVL=0
      020001C4H   SYMBOL    XDATA    ---       dat
      020001C7H   SYMBOL    XDATA    BYTE      length
      0100268FH   BLOCK     CODE     NEAR LAB  LVL=1
      020001C8H   SYMBOL    XDATA    BYTE      crc
      00000004H   SYMBOL    DATA     BYTE      count
      00000006H   SYMBOL    DATA     BYTE      crc_count
      ---         BLOCKEND  ---      ---       LVL=1
      01002681H   LINE      CODE     ---       #79
      0100268FH   LINE      CODE     ---       #80
      0100268FH   LINE      CODE     ---       #81
      01002693H   LINE      CODE     ---       #82
      01002695H   LINE      CODE     ---       #83
      01002695H   LINE      CODE     ---       #84
      0100269FH   LINE      CODE     ---       #85
      0100269FH   LINE      CODE     ---       #86
      010026BEH   LINE      CODE     ---       #87
      010026C0H   LINE      CODE     ---       #88
      010026C0H   LINE      CODE     ---       #89
      010026C7H   LINE      CODE     ---       #90
      010026C7H   LINE      CODE     ---       #91
      010026CAH   LINE      CODE     ---       #92
      010026CDH   LINE      CODE     ---       #93
      010026CFH   LINE      CODE     ---       #95
      010026CFH   LINE      CODE     ---       #96
      010026D6H   LINE      CODE     ---       #97
      010026D6H   LINE      CODE     ---       #98
      010026DBH   LINE      CODE     ---       #99
      010026DEH   LINE      CODE     ---       #100
      010026E3H   LINE      CODE     ---       #101
      ---         BLOCKEND  ---      ---       LVL=0

      010026E4H   BLOCK     CODE     ---       LVL=0
      010026E4H   BLOCK     CODE     NEAR LAB  LVL=1
      020001E4H   SYMBOL    XDATA    BYTE      flag_poweron
      020001E5H   SYMBOL    XDATA    BYTE      flag_error
      020001E6H   SYMBOL    XDATA    BYTE      error_200mstick
LX51 LINKER/LOCATER V4.41                                                             01/15/2025  09:25:09  PAGE 89


      ---         BLOCKEND  ---      ---       LVL=1
      010026E4H   LINE      CODE     ---       #104
      010026E4H   LINE      CODE     ---       #109
      010026F0H   LINE      CODE     ---       #110
      010026F0H   LINE      CODE     ---       #111
      010026F8H   LINE      CODE     ---       #112
      010026FFH   LINE      CODE     ---       #113
      01002704H   LINE      CODE     ---       #114
      01002706H   LINE      CODE     ---       #115
      01002706H   LINE      CODE     ---       #116
      0100270CH   LINE      CODE     ---       #117
      0100270EH   LINE      CODE     ---       #119
      0100271BH   LINE      CODE     ---       #121
      01002727H   LINE      CODE     ---       #122
      01002727H   LINE      CODE     ---       #123
      0100272BH   LINE      CODE     ---       #124
      01002731H   LINE      CODE     ---       #125
      01002731H   LINE      CODE     ---       #126
      01002737H   LINE      CODE     ---       #127
      01002740H   LINE      CODE     ---       #128
      01002740H   LINE      CODE     ---       #129
      01002740H   LINE      CODE     ---       #130
      01002742H   LINE      CODE     ---       #131
      ---         BLOCKEND  ---      ---       LVL=0

      01001C60H   BLOCK     CODE     ---       LVL=0
      01001C60H   BLOCK     CODE     NEAR LAB  LVL=1
      020001BCH   SYMBOL    XDATA    ---       agroup_data
      00000007H   SYMBOL    DATA     BYTE      agroup_count
      020001C3H   SYMBOL    XDATA    BYTE      flag_headertrue
      ---         BLOCKEND  ---      ---       LVL=1
      01001C60H   LINE      CODE     ---       #133
      01001C60H   LINE      CODE     ---       #134
      01001C60H   LINE      CODE     ---       #135
      01001C73H   LINE      CODE     ---       #136
      01001C75H   LINE      CODE     ---       #137
      01001C79H   LINE      CODE     ---       #139
      01001C8CH   LINE      CODE     ---       #140
      01001C98H   LINE      CODE     ---       #142
      01001C9EH   LINE      CODE     ---       #143
      01001CA4H   LINE      CODE     ---       #144
      01001CA6H   LINE      CODE     ---       #145
      01001CA8H   LINE      CODE     ---       #147
      01001CB2H   LINE      CODE     ---       #150
      01001CB4H   LINE      CODE     ---       #151
      01001CB4H   LINE      CODE     ---       #152
      01001CD3H   LINE      CODE     ---       #153
      01001CDCH   LINE      CODE     ---       #154
      01001CDEH   LINE      CODE     ---       #155
      01001CE3H   LINE      CODE     ---       #157
      01001D01H   LINE      CODE     ---       #158
      01001D01H   LINE      CODE     ---       #159
      01001D09H   LINE      CODE     ---       #160
      01001D09H   LINE      CODE     ---       #161
      01001D14H   LINE      CODE     ---       #162
      01001D16H   LINE      CODE     ---       #163
      01001D1AH   LINE      CODE     ---       #164
      01001D1AH   LINE      CODE     ---       #165
      01001D2CH   LINE      CODE     ---       #166
      01001D2CH   LINE      CODE     ---       #167
      01001D2CH   LINE      CODE     ---       #168
      ---         BLOCKEND  ---      ---       LVL=0

      010025A6H   BLOCK     CODE     ---       LVL=0
      00000007H   SYMBOL    DATA     BYTE      data_type
LX51 LINKER/LOCATER V4.41                                                             01/15/2025  09:25:09  PAGE 90


      00000004H   SYMBOL    DATA     WORD      send_command
      010025A6H   BLOCK     CODE     NEAR LAB  LVL=1
      020001CDH   SYMBOL    XDATA    ---       send_databuff
      00000007H   SYMBOL    DATA     BYTE      i
      ---         BLOCKEND  ---      ---       LVL=1
      010025A6H   LINE      CODE     ---       #170
      010025A6H   LINE      CODE     ---       #171
      010025A6H   LINE      CODE     ---       #174
      010025ACH   LINE      CODE     ---       #175
      010025AFH   LINE      CODE     ---       #176
      010025B2H   LINE      CODE     ---       #177
      010025B5H   LINE      CODE     ---       #178
      010025C5H   LINE      CODE     ---       #179
      010025C9H   LINE      CODE     ---       #180
      010025CDH   LINE      CODE     ---       #181
      010025CFH   LINE      CODE     ---       #182
      010025EEH   LINE      CODE     ---       #183
      010025F7H   LINE      CODE     ---       #184
      010025F9H   LINE      CODE     ---       #185
      010025FEH   LINE      CODE     ---       #187
      01002612H   LINE      CODE     ---       #188
      0100261BH   LINE      CODE     ---       #189
      0100261DH   LINE      CODE     ---       #190
      ---         BLOCKEND  ---      ---       LVL=0

      ---         MODULE    ---      ---       ?C_STARTUP
      01000000H   PUBLIC    CODE     ---       ?C_STARTUP
      000000E0H   SYMBOL    DATA     ---       ACC
      000000F0H   SYMBOL    DATA     ---       B
      00000083H   SYMBOL    DATA     ---       DPH
      00000082H   SYMBOL    DATA     ---       DPL
      00000000H   SYMBOL    NUMBER   ---       IBPSTACK
      00000100H   SYMBOL    NUMBER   ---       IBPSTACKTOP
      000000FFH   SYMBOL    NUMBER   ---       IDATALEN
      0100239DH   SYMBOL    CODE     ---       IDATALOOP
      00000000H   SYMBOL    NUMBER   ---       PBPSTACK
      00000100H   SYMBOL    NUMBER   ---       PBPSTACKTOP
      00000000H   SYMBOL    NUMBER   ---       PDATALEN
      00000000H   SYMBOL    NUMBER   ---       PDATASTART
      00000000H   SYMBOL    NUMBER   ---       PPAGE
      00000000H   SYMBOL    NUMBER   ---       PPAGEENABLE
      000000A0H   SYMBOL    DATA     ---       PPAGE_SFR
      00000081H   SYMBOL    DATA     ---       SP
      0100239AH   SYMBOL    CODE     ---       STARTUP1
      00000000H   SYMBOL    NUMBER   ---       XBPSTACK
      00000000H   SYMBOL    NUMBER   ---       XBPSTACKTOP
      000002FFH   SYMBOL    NUMBER   ---       XDATALEN
      010023A8H   SYMBOL    CODE     ---       XDATALOOP
      00000000H   SYMBOL    NUMBER   ---       XDATASTART
      01000000H   LINE      CODE     ---       #126
      0100239AH   LINE      CODE     ---       #133
      0100239CH   LINE      CODE     ---       #134
      0100239DH   LINE      CODE     ---       #135
      0100239EH   LINE      CODE     ---       #136
      010023A0H   LINE      CODE     ---       #140
      010023A3H   LINE      CODE     ---       #141
      010023A5H   LINE      CODE     ---       #143
      010023A7H   LINE      CODE     ---       #147
      010023A8H   LINE      CODE     ---       #148
      010023A9H   LINE      CODE     ---       #149
      010023AAH   LINE      CODE     ---       #150
      010023ACH   LINE      CODE     ---       #151
      010023AEH   LINE      CODE     ---       #185
      010023B1H   LINE      CODE     ---       #196

LX51 LINKER/LOCATER V4.41                                                             01/15/2025  09:25:09  PAGE 91


      ---         MODULE    ---      ---       ?C?FPADD
      0100007DH   PUBLIC    CODE     ---       ?C?FPADD
      01000079H   PUBLIC    CODE     ---       ?C?FPSUB

      ---         MODULE    ---      ---       ?C?FPMUL
      0100016EH   PUBLIC    CODE     ---       ?C?FPMUL

      ---         MODULE    ---      ---       ?C?FPDIV
      01000277H   PUBLIC    CODE     ---       ?C?FPDIV

      ---         MODULE    ---      ---       ?C?FPCMP
      01000316H   PUBLIC    CODE     ---       ?C?FPCMP
      01000314H   PUBLIC    CODE     ---       ?C?FPCMP3

      ---         MODULE    ---      ---       ?C?FCAST
      0100038BH   PUBLIC    CODE     ---       ?C?FCASTC
      01000386H   PUBLIC    CODE     ---       ?C?FCASTI
      01000381H   PUBLIC    CODE     ---       ?C?FCASTL

      ---         MODULE    ---      ---       ?C?CASTF
      010003BFH   PUBLIC    CODE     ---       ?C?CASTF

      ---         MODULE    ---      ---       ?C?FPGETOPN
      010003F6H   PUBLIC    CODE     ---       ?C?FPGETOPN2
      0100042BH   PUBLIC    CODE     ---       ?C?FPNANRESULT
      01000435H   PUBLIC    CODE     ---       ?C?FPOVERFLOW
      0100040DH   PUBLIC    CODE     ---       ?C?FPRESULT
      01000421H   PUBLIC    CODE     ---       ?C?FPRESULT2
      01000432H   PUBLIC    CODE     ---       ?C?FPUNDERFLOW

      ---         MODULE    ---      ---       ?C_INIT
      010023EFH   PUBLIC    CODE     ---       ?C_START

      ---         MODULE    ---      ---       ?C?COPY
      01000510H   PUBLIC    CODE     ---       ?C?COPY

      ---         MODULE    ---      ---       ?C?CLDOPTR
      01000536H   PUBLIC    CODE     ---       ?C?CLDOPTR

      ---         MODULE    ---      ---       ?C?IMUL
      01000563H   PUBLIC    CODE     ---       ?C?IMUL

      ---         MODULE    ---      ---       ?C?IILDX
      01000575H   PUBLIC    CODE     ---       ?C?IILDX

      ---         MODULE    ---      ---       ?C?ULDIV
      010005C7H   PUBLIC    CODE     ---       ?C?ULDIV

      ---         MODULE    ---      ---       ?C?LNEG
      01000659H   PUBLIC    CODE     ---       ?C?LNEG

      ---         MODULE    ---      ---       ?C?ULCMP
      01000667H   PUBLIC    CODE     ---       ?C?ULCMP

      ---         MODULE    ---      ---       ?C?ULSHR
      01000678H   PUBLIC    CODE     ---       ?C?ULSHR

      ---         MODULE    ---      ---       ?C?SLSHR
      0100068BH   PUBLIC    CODE     ---       ?C?SLSHR

      ---         MODULE    ---      ---       ?C?LLDIDATA
      0100069FH   PUBLIC    CODE     ---       ?C?LLDIDATA

      ---         MODULE    ---      ---       ?C?LSTIDATA
      010006ABH   PUBLIC    CODE     ---       ?C?LSTIDATA
LX51 LINKER/LOCATER V4.41                                                             01/15/2025  09:25:09  PAGE 92



      ---         MODULE    ---      ---       ?C?LSTXDATA
      010006B7H   PUBLIC    CODE     ---       ?C?LSTXDATA

      ---         MODULE    ---      ---       ?C?LSTKXDATA
      010006C3H   PUBLIC    CODE     ---       ?C?LSTKXDATA

      ---         MODULE    ---      ---       ?C?LIMUL
      010006F4H   PUBLIC    CODE     ---       ?C?LIMUL

      ---         MODULE    ---      ---       ?C?MEMSET
      01000721H   PUBLIC    CODE     ---       ?C?MEMSET

Program Size: data=103.0 xdata=488 const=7 code=11419
LX51 RUN COMPLETE.  0 WARNING(S),  0 ERROR(S)
